(imatplotlib.font_manager
FontManager
p1
(dp2
S'afm_lookup_cache'
p3
(dp4
sS'ttflist'
p5
(lp6
ccopy_reg
_reconstructor
p7
(cmatplotlib.font_manager
FontEntry
p8
c__builtin__
object
p9
NtRp10
(dp11
S'style'
p12
S'normal'
p13
sS'name'
p14
S'cmb10'
p15
sS'weight'
p16
I400
sS'stretch'
p17
g13
sS'variant'
p18
g13
sS'fname'
p19
S'/usr/share/matplotlib/mpl-data/fonts/ttf/cmb10.ttf'
p20
sS'size'
p21
S'scalable'
p22
sbag7
(g8
g9
NtRp23
(dp24
g12
g13
sg14
S'cmex10'
p25
sg16
I400
sg17
g13
sg18
g13
sg19
S'/usr/share/matplotlib/mpl-data/fonts/ttf/cmex10.ttf'
p26
sg21
g22
sbag7
(g8
g9
NtRp27
(dp28
g12
S'italic'
p29
sg14
S'STIXNonUnicode'
p30
sg16
I400
sg17
g13
sg18
g13
sg19
S'/usr/share/matplotlib/mpl-data/fonts/ttf/STIXNonUniIta.ttf'
p31
sg21
g22
sbag7
(g8
g9
NtRp32
(dp33
g12
g13
sg14
S'STIXSizeOneSym'
p34
sg16
I400
sg17
g13
sg18
g13
sg19
S'/usr/share/matplotlib/mpl-data/fonts/ttf/STIXSizOneSymReg.ttf'
p35
sg21
g22
sbag7
(g8
g9
NtRp36
(dp37
g12
g13
sg14
S'STIXSizeThreeSym'
p38
sg16
I400
sg17
g13
sg18
g13
sg19
S'/usr/share/matplotlib/mpl-data/fonts/ttf/STIXSizThreeSymReg.ttf'
p39
sg21
g22
sbag7
(g8
g9
NtRp40
(dp41
g12
g13
sg14
S'STIXSizeTwoSym'
p42
sg16
I700
sg17
g13
sg18
g13
sg19
S'/usr/share/matplotlib/mpl-data/fonts/ttf/STIXSizTwoSymBol.ttf'
p43
sg21
g22
sbag7
(g8
g9
NtRp44
(dp45
g12
g13
sg14
S'cmtt10'
p46
sg16
I400
sg17
g13
sg18
g13
sg19
S'/usr/share/matplotlib/mpl-data/fonts/ttf/cmtt10.ttf'
p47
sg21
g22
sbag7
(g8
g9
NtRp48
(dp49
g12
g13
sg14
S'STIXGeneral'
p50
sg16
I400
sg17
g13
sg18
g13
sg19
S'/usr/share/matplotlib/mpl-data/fonts/ttf/STIXGeneral.ttf'
p51
sg21
g22
sbag7
(g8
g9
NtRp52
(dp53
g12
g29
sg14
S'STIXNonUnicode'
p54
sg16
I700
sg17
g13
sg18
g13
sg19
S'/usr/share/matplotlib/mpl-data/fonts/ttf/STIXNonUniBolIta.ttf'
p55
sg21
g22
sbag7
(g8
g9
NtRp56
(dp57
g12
g13
sg14
S'STIXSizeFiveSym'
p58
sg16
I400
sg17
g13
sg18
g13
sg19
S'/usr/share/matplotlib/mpl-data/fonts/ttf/STIXSizFiveSymReg.ttf'
p59
sg21
g22
sbag7
(g8
g9
NtRp60
(dp61
g12
g13
sg14
S'STIXSizeOneSym'
p62
sg16
I700
sg17
g13
sg18
g13
sg19
S'/usr/share/matplotlib/mpl-data/fonts/ttf/STIXSizOneSymBol.ttf'
p63
sg21
g22
sbag7
(g8
g9
NtRp64
(dp65
g12
g13
sg14
S'STIXGeneral'
p66
sg16
I700
sg17
g13
sg18
g13
sg19
S'/usr/share/matplotlib/mpl-data/fonts/ttf/STIXGeneralBol.ttf'
p67
sg21
g22
sbag7
(g8
g9
NtRp68
(dp69
g12
g13
sg14
S'cmr10'
p70
sg16
I400
sg17
g13
sg18
g13
sg19
S'/usr/share/matplotlib/mpl-data/fonts/ttf/cmr10.ttf'
p71
sg21
g22
sbag7
(g8
g9
NtRp72
(dp73
g12
g13
sg14
S'STIXSizeTwoSym'
p74
sg16
I400
sg17
g13
sg18
g13
sg19
S'/usr/share/matplotlib/mpl-data/fonts/ttf/STIXSizTwoSymReg.ttf'
p75
sg21
g22
sbag7
(g8
g9
NtRp76
(dp77
g12
g13
sg14
S'STIXNonUnicode'
p78
sg16
I400
sg17
g13
sg18
g13
sg19
S'/usr/share/matplotlib/mpl-data/fonts/ttf/STIXNonUni.ttf'
p79
sg21
g22
sbag7
(g8
g9
NtRp80
(dp81
g12
g13
sg14
S'cmsy10'
p82
sg16
I400
sg17
g13
sg18
g13
sg19
S'/usr/share/matplotlib/mpl-data/fonts/ttf/cmsy10.ttf'
p83
sg21
g22
sbag7
(g8
g9
NtRp84
(dp85
g12
g13
sg14
S'STIXSizeThreeSym'
p86
sg16
I700
sg17
g13
sg18
g13
sg19
S'/usr/share/matplotlib/mpl-data/fonts/ttf/STIXSizThreeSymBol.ttf'
p87
sg21
g22
sbag7
(g8
g9
NtRp88
(dp89
g12
g13
sg14
S'cmss10'
p90
sg16
I400
sg17
g13
sg18
g13
sg19
S'/usr/share/matplotlib/mpl-data/fonts/ttf/cmss10.ttf'
p91
sg21
g22
sbag7
(g8
g9
NtRp92
(dp93
g12
g13
sg14
S'STIXSizeFourSym'
p94
sg16
I700
sg17
g13
sg18
g13
sg19
S'/usr/share/matplotlib/mpl-data/fonts/ttf/STIXSizFourSymBol.ttf'
p95
sg21
g22
sbag7
(g8
g9
NtRp96
(dp97
g12
g29
sg14
S'STIXGeneral'
p98
sg16
I400
sg17
g13
sg18
g13
sg19
S'/usr/share/matplotlib/mpl-data/fonts/ttf/STIXGeneralItalic.ttf'
p99
sg21
g22
sbag7
(g8
g9
NtRp100
(dp101
g12
g13
sg14
S'cmmi10'
p102
sg16
I400
sg17
g13
sg18
g13
sg19
S'/usr/share/matplotlib/mpl-data/fonts/ttf/cmmi10.ttf'
p103
sg21
g22
sbag7
(g8
g9
NtRp104
(dp105
g12
g13
sg14
S'STIXNonUnicode'
p106
sg16
I700
sg17
g13
sg18
g13
sg19
S'/usr/share/matplotlib/mpl-data/fonts/ttf/STIXNonUniBol.ttf'
p107
sg21
g22
sbag7
(g8
g9
NtRp108
(dp109
g12
g29
sg14
S'STIXGeneral'
p110
sg16
I700
sg17
g13
sg18
g13
sg19
S'/usr/share/matplotlib/mpl-data/fonts/ttf/STIXGeneralBolIta.ttf'
p111
sg21
g22
sbag7
(g8
g9
NtRp112
(dp113
g12
g13
sg14
S'STIXSizeFourSym'
p114
sg16
I400
sg17
g13
sg18
g13
sg19
S'/usr/share/matplotlib/mpl-data/fonts/ttf/STIXSizFourSymReg.ttf'
p115
sg21
g22
sbag7
(g8
g9
NtRp116
(dp117
g12
g13
sg14
S'Webdings'
p118
sg16
I400
sg17
g13
sg18
g13
sg19
S'/usr/share/fonts/truetype/msttcorefonts/webdings.ttf'
p119
sg21
g22
sbag7
(g8
g9
NtRp120
(dp121
g12
g13
sg14
S'KacstTitle'
p122
sg16
I400
sg17
g13
sg18
g13
sg19
S'/usr/share/fonts/truetype/kacst/KacstTitle.ttf'
p123
sg21
g22
sbag7
(g8
g9
NtRp124
(dp125
g12
g13
sg14
S'Mallige'
p126
sg16
I700
sg17
g13
sg18
g13
sg19
S'/usr/share/fonts/truetype/ttf-indic-fonts-core/Malige-b.ttf'
p127
sg21
g22
sbag7
(g8
g9
NtRp128
(dp129
g12
g13
sg14
S'Verdana'
p130
sg16
I700
sg17
g13
sg18
g13
sg19
S'/usr/share/fonts/truetype/msttcorefonts/verdanab.ttf'
p131
sg21
g22
sbag7
(g8
g9
NtRp132
(dp133
g12
g13
sg14
S'Umpush'
p134
sg16
I400
sg17
g13
sg18
g13
sg19
S'/usr/share/fonts/truetype/tlwg/Umpush.ttf'
p135
sg21
g22
sbag7
(g8
g9
NtRp136
(dp137
g12
g13
sg14
S'Ume Gothic O5'
p138
sg16
I400
sg17
g13
sg18
g13
sg19
S'/usr/share/fonts/truetype/horai-umefont/ume-tgo5.ttf'
p139
sg21
g22
sbag7
(g8
g9
NtRp140
(dp141
g12
g13
sg14
S'Garuda'
p142
sg16
I700
sg17
g13
sg18
g13
sg19
S'/usr/share/fonts/truetype/tlwg/Garuda-Bold.ttf'
p143
sg21
g22
sbag7
(g8
g9
NtRp144
(dp145
g12
g13
sg14
S'Times New Roman'
p146
sg16
I500
sg17
g13
sg18
g13
sg19
S'/usr/share/fonts/truetype/msttcorefonts/Times_New_Roman.ttf'
p147
sg21
g22
sbag7
(g8
g9
NtRp148
(dp149
g12
g13
sg14
S'Ume Mincho S3'
p150
sg16
I400
sg17
g13
sg18
g13
sg19
S'/usr/share/fonts/truetype/horai-umefont/ume-tms3.ttf'
p151
sg21
g22
sbag7
(g8
g9
NtRp152
(dp153
g12
g29
sg14
S'Verdana'
p154
sg16
I400
sg17
g13
sg18
g13
sg19
S'/usr/share/fonts/truetype/msttcorefonts/verdanai.ttf'
p155
sg21
g22
sbag7
(g8
g9
NtRp156
(dp157
g12
g13
sg14
S'Droid Sans Japanese'
p158
sg16
I400
sg17
g13
sg18
g13
sg19
S'/usr/share/fonts/truetype/droid/DroidSansJapanese.ttf'
p159
sg21
g22
sbag7
(g8
g9
NtRp160
(dp161
g12
g13
sg14
S'FreeSerif'
p162
sg16
I400
sg17
g13
sg18
g13
sg19
S'/usr/share/fonts/truetype/freefont/FreeSerif.ttf'
p163
sg21
g22
sbag7
(g8
g9
NtRp164
(dp165
g12
g29
sg14
S'rsfs10'
p166
sg16
I400
sg17
g13
sg18
g13
sg19
S'/usr/share/fonts/truetype/ttf-lyx/rsfs10.ttf'
p167
sg21
g22
sbag7
(g8
g9
NtRp168
(dp169
g12
g13
sg14
S'DejaVu Sans'
p170
sg16
I400
sg17
S'condensed'
p171
sg18
g13
sg19
S'/usr/share/fonts/truetype/ttf-dejavu/DejaVuSansCondensed.ttf'
p172
sg21
g22
sbag7
(g8
g9
NtRp173
(dp174
g12
S'oblique'
p175
sg14
S'Loma'
p176
sg16
I400
sg17
g13
sg18
g13
sg19
S'/usr/share/fonts/truetype/tlwg/Loma-Oblique.ttf'
p177
sg21
g22
sbag7
(g8
g9
NtRp178
(dp179
g12
g175
sg14
S'Norasi'
p180
sg16
I400
sg17
g13
sg18
g13
sg19
S'/usr/share/fonts/truetype/tlwg/Norasi-Oblique.ttf'
p181
sg21
g22
sbag7
(g8
g9
NtRp182
(dp183
g12
g175
sg14
S'Kinnari'
p184
sg16
I700
sg17
g13
sg18
g13
sg19
S'/usr/share/fonts/truetype/tlwg/Kinnari-BoldOblique.ttf'
p185
sg21
g22
sbag7
(g8
g9
NtRp186
(dp187
g12
g13
sg14
S'Arial'
p188
sg16
I700
sg17
g13
sg18
g13
sg19
S'/usr/share/fonts/truetype/msttcorefonts/Arial_Bold.ttf'
p189
sg21
g22
sbag7
(g8
g9
NtRp190
(dp191
g12
g13
sg14
S'KacstPoster'
p192
sg16
I400
sg17
g13
sg18
g13
sg19
S'/usr/share/fonts/truetype/kacst/KacstPoster.ttf'
p193
sg21
g22
sbag7
(g8
g9
NtRp194
(dp195
g12
g13
sg14
S'DejaVu Sans Mono'
p196
sg16
I400
sg17
g13
sg18
g13
sg19
S'/usr/share/fonts/truetype/ttf-dejavu/DejaVuSansMono.ttf'
p197
sg21
g22
sbag7
(g8
g9
NtRp198
(dp199
g12
g13
sg14
S'Lohit Punjabi'
p200
sg16
I400
sg17
g13
sg18
g13
sg19
S'/usr/share/fonts/truetype/ttf-punjabi-fonts/lohit_pa.ttf'
p201
sg21
g22
sbag7
(g8
g9
NtRp202
(dp203
g12
g13
sg14
S'Droid Serif'
p204
sg16
I700
sg17
g13
sg18
g13
sg19
S'/usr/share/fonts/truetype/droid/DroidSerif-Bold.ttf'
p205
sg21
g22
sbag7
(g8
g9
NtRp206
(dp207
g12
g13
sg14
S'Meera'
p208
sg16
I400
sg17
g13
sg18
g13
sg19
S'/usr/share/fonts/truetype/ttf-indic-fonts-core/Meera_04.ttf'
p209
sg21
g22
sbag7
(g8
g9
NtRp210
(dp211
g12
g13
sg14
S'TakaoPGothic'
p212
sg16
I400
sg17
g13
sg18
g13
sg19
S'/usr/share/fonts/truetype/fonts-japanese-gothic.ttf'
p213
sg21
g22
sbag7
(g8
g9
NtRp214
(dp215
g12
g29
sg14
S'Arial'
p216
sg16
I400
sg17
g13
sg18
g13
sg19
S'/usr/share/fonts/truetype/msttcorefonts/Arial_Italic.ttf'
p217
sg21
g22
sbag7
(g8
g9
NtRp218
(dp219
g12
g13
sg14
S'UnDotum'
p220
sg16
I400
sg17
g13
sg18
g13
sg19
S'/usr/share/fonts/truetype/unfonts-core/UnDotum.ttf'
p221
sg21
g22
sbag7
(g8
g9
NtRp222
(dp223
g12
g13
sg14
S'Georgia'
p224
sg16
I700
sg17
g13
sg18
g13
sg19
S'/usr/share/fonts/truetype/msttcorefonts/Georgia_Bold.ttf'
p225
sg21
g22
sbag7
(g8
g9
NtRp226
(dp227
g12
g175
sg14
S'Umpush'
p228
sg16
I200
sg17
g13
sg18
g13
sg19
S'/usr/share/fonts/truetype/tlwg/Umpush-LightOblique.ttf'
p229
sg21
g22
sbag7
(g8
g9
NtRp230
(dp231
g12
g13
sg14
S'FreeSerif'
p232
sg16
I700
sg17
g13
sg18
g13
sg19
S'/usr/share/fonts/truetype/freefont/FreeSerifBold.ttf'
p233
sg21
g22
sbag7
(g8
g9
NtRp234
(dp235
g12
g175
sg14
S'Waree'
p236
sg16
I400
sg17
g13
sg18
g13
sg19
S'/usr/share/fonts/truetype/tlwg/Waree-Oblique.ttf'
p237
sg21
g22
sbag7
(g8
g9
NtRp238
(dp239
g12
g13
sg14
S'Tlwg Typo'
p240
sg16
I400
sg17
g13
sg18
g13
sg19
S'/usr/share/fonts/truetype/tlwg/TlwgTypo.ttf'
p241
sg21
g22
sbag7
(g8
g9
NtRp242
(dp243
g12
g13
sg14
S'DejaVu Serif'
p244
sg16
I700
sg17
g13
sg18
g13
sg19
S'/usr/share/fonts/truetype/ttf-dejavu/DejaVuSerif-Bold.ttf'
p245
sg21
g22
sbag7
(g8
g9
NtRp246
(dp247
g12
g13
sg14
S'GFS Solomos'
p248
sg16
I400
sg17
g13
sg18
g13
sg19
S'/usr/share/fonts/truetype/solomos/GFSSolomos.otf'
p249
sg21
g22
sbag7
(g8
g9
NtRp250
(dp251
g12
g29
sg14
S'GFS Didot'
p252
sg16
I700
sg17
g13
sg18
g13
sg19
S'/usr/share/fonts/truetype/didot/GFSDidotBoldItalic.otf'
p253
sg21
g22
sbag7
(g8
g9
NtRp254
(dp255
g12
g13
sg14
S'Georgia'
p256
sg16
I700
sg17
g13
sg18
g13
sg19
S'/usr/share/fonts/truetype/msttcorefonts/georgiab.ttf'
p257
sg21
g22
sbag7
(g8
g9
NtRp258
(dp259
g12
g13
sg14
S'DejaVu Serif'
p260
sg16
I400
sg17
g13
sg18
g13
sg19
S'/usr/share/fonts/truetype/ttf-dejavu/DejaVuSerif.ttf'
p261
sg21
g22
sbag7
(g8
g9
NtRp262
(dp263
g12
g13
sg14
S'Liberation Sans Narrow'
p264
sg16
I700
sg17
g171
sg18
g13
sg19
S'/usr/share/fonts/truetype/liberation/LiberationSansNarrow-Bold.ttf'
p265
sg21
g22
sbag7
(g8
g9
NtRp266
(dp267
g12
g175
sg14
S'FreeSans'
p268
sg16
I400
sg17
g13
sg18
g13
sg19
S'/usr/share/fonts/truetype/freefont/FreeSansOblique.ttf'
p269
sg21
g22
sbag7
(g8
g9
NtRp270
(dp271
g12
g13
sg14
S'Comic Sans MS'
p272
sg16
I700
sg17
g13
sg18
g13
sg19
S'/usr/share/fonts/truetype/msttcorefonts/Comic_Sans_MS_Bold.ttf'
p273
sg21
g22
sbag7
(g8
g9
NtRp274
(dp275
g12
g13
sg14
S'Liberation Mono'
p276
sg16
I400
sg17
g13
sg18
g13
sg19
S'/usr/share/fonts/truetype/liberation/LiberationMono-Regular.ttf'
p277
sg21
g22
sbag7
(g8
g9
NtRp278
(dp279
g12
g13
sg14
S'Liberation Sans'
p280
sg16
I700
sg17
g13
sg18
g13
sg19
S'/usr/share/fonts/truetype/liberation/LiberationSans-Bold.ttf'
p281
sg21
g22
sbag7
(g8
g9
NtRp282
(dp283
g12
g13
sg14
S'KacstTitleL'
p284
sg16
I400
sg17
g13
sg18
g13
sg19
S'/usr/share/fonts/truetype/kacst/KacstTitleL.ttf'
p285
sg21
g22
sbag7
(g8
g9
NtRp286
(dp287
g12
g13
sg14
S'Lohit Hindi'
p288
sg16
I400
sg17
g13
sg18
g13
sg19
S'/usr/share/fonts/truetype/ttf-indic-fonts-core/lohit_hi.ttf'
p289
sg21
g22
sbag7
(g8
g9
NtRp290
(dp291
g12
g13
sg14
S'Courier New'
p292
sg16
I700
sg17
g13
sg18
g13
sg19
S'/usr/share/fonts/truetype/msttcorefonts/Courier_New_Bold.ttf'
p293
sg21
g22
sbag7
(g8
g9
NtRp294
(dp295
g12
g29
sg14
S'Georgia'
p296
sg16
I700
sg17
g13
sg18
g13
sg19
S'/usr/share/fonts/truetype/msttcorefonts/Georgia_Bold_Italic.ttf'
p297
sg21
g22
sbag7
(g8
g9
NtRp298
(dp299
g12
g175
sg14
S'DejaVu Sans'
p300
sg16
I400
sg17
g13
sg18
g13
sg19
S'/usr/share/fonts/truetype/ttf-dejavu/DejaVuSans-Oblique.ttf'
p301
sg21
g22
sbag7
(g8
g9
NtRp302
(dp303
g12
g13
sg14
S'Ume P Mincho S3'
p304
sg16
I400
sg17
g13
sg18
g13
sg19
S'/usr/share/fonts/truetype/horai-umefont/ume-pms3.ttf'
p305
sg21
g22
sbag7
(g8
g9
NtRp306
(dp307
g12
g13
sg14
S'Ume P Gothic S4'
p308
sg16
I400
sg17
g13
sg18
g13
sg19
S'/usr/share/fonts/truetype/horai-umefont/ume-pgs4.ttf'
p309
sg21
g22
sbag7
(g8
g9
NtRp310
(dp311
g12
g13
sg14
S'GFS Porson'
p312
sg16
I400
sg17
g13
sg18
g13
sg19
S'/usr/share/fonts/truetype/porson/GFSPorson.otf'
p313
sg21
g22
sbag7
(g8
g9
NtRp314
(dp315
g12
g13
sg14
S'Ubuntu'
p316
sg16
I400
sg17
g13
sg18
g13
sg19
S'/usr/share/fonts/truetype/ubuntu-font-family/Ubuntu-R.ttf'
p317
sg21
g22
sbag7
(g8
g9
NtRp318
(dp319
g12
g29
sg14
S'Times New Roman'
p320
sg16
I700
sg17
g13
sg18
g13
sg19
S'/usr/share/fonts/truetype/msttcorefonts/Times_New_Roman_Bold_Italic.ttf'
p321
sg21
g22
sbag7
(g8
g9
NtRp322
(dp323
g12
g13
sg14
S'eufm10'
p324
sg16
I400
sg17
g13
sg18
g13
sg19
S'/usr/share/fonts/truetype/ttf-lyx/eufm10.ttf'
p325
sg21
g22
sbag7
(g8
g9
NtRp326
(dp327
g12
g13
sg14
S'Ume Mincho'
p328
sg16
I400
sg17
g13
sg18
g13
sg19
S'/usr/share/fonts/truetype/horai-umefont/ume-tmo3.ttf'
p329
sg21
g22
sbag7
(g8
g9
NtRp330
(dp331
g12
g175
sg14
S'DejaVu Sans'
p332
sg16
I700
sg17
g13
sg18
g13
sg19
S'/usr/share/fonts/truetype/ttf-dejavu/DejaVuSans-BoldOblique.ttf'
p333
sg21
g22
sbag7
(g8
g9
NtRp334
(dp335
g12
g13
sg14
S'Tlwg Typist'
p336
sg16
I400
sg17
g13
sg18
g13
sg19
S'/usr/share/fonts/truetype/tlwg/TlwgTypist.ttf'
p337
sg21
g22
sbag7
(g8
g9
NtRp338
(dp339
g12
g13
sg14
S'NanumGothic'
p340
sg16
I400
sg17
g13
sg18
g13
sg19
S'/usr/share/fonts/truetype/nanum/NanumGothic.ttf'
p341
sg21
g22
sbag7
(g8
g9
NtRp342
(dp343
g12
g13
sg14
S'wasy10'
p344
sg16
I400
sg17
g13
sg18
g13
sg19
S'/usr/share/fonts/truetype/ttf-lyx/wasy10.ttf'
p345
sg21
g22
sbag7
(g8
g9
NtRp346
(dp347
g12
g13
sg14
S'Ume P Gothic'
p348
sg16
I400
sg17
g13
sg18
g13
sg19
S'/usr/share/fonts/truetype/horai-umefont/ume-pgo4.ttf'
p349
sg21
g22
sbag7
(g8
g9
NtRp350
(dp351
g12
g13
sg14
S'Impact'
p352
sg16
I400
sg17
g13
sg18
g13
sg19
S'/usr/share/fonts/truetype/msttcorefonts/Impact.ttf'
p353
sg21
g22
sbag7
(g8
g9
NtRp354
(dp355
g12
g175
sg14
S'DejaVu Sans'
p356
sg16
I700
sg17
g171
sg18
g13
sg19
S'/usr/share/fonts/truetype/ttf-dejavu/DejaVuSansCondensed-BoldOblique.ttf'
p357
sg21
g22
sbag7
(g8
g9
NtRp358
(dp359
g12
g13
sg14
S'Georgia'
p360
sg16
I400
sg17
g13
sg18
g13
sg19
S'/usr/share/fonts/truetype/msttcorefonts/Georgia.ttf'
p361
sg21
g22
sbag7
(g8
g9
NtRp362
(dp363
g12
g13
sg14
S'GFS Artemisia'
p364
sg16
I700
sg17
g13
sg18
g13
sg19
S'/usr/share/fonts/truetype/artemisia/GFSArtemisiaBold.otf'
p365
sg21
g22
sbag7
(g8
g9
NtRp366
(dp367
g12
g13
sg14
S'msbm10'
p368
sg16
I400
sg17
g13
sg18
g13
sg19
S'/usr/share/fonts/truetype/ttf-lyx/msbm10.ttf'
p369
sg21
g22
sbag7
(g8
g9
NtRp370
(dp371
g12
g13
sg14
S'TlwgMono'
p372
sg16
I700
sg17
g13
sg18
g13
sg19
S'/usr/share/fonts/truetype/tlwg/TlwgMono-Bold.ttf'
p373
sg21
g22
sbag7
(g8
g9
NtRp374
(dp375
g12
g29
sg14
S'Liberation Mono'
p376
sg16
I400
sg17
g13
sg18
g13
sg19
S'/usr/share/fonts/truetype/liberation/LiberationMono-Italic.ttf'
p377
sg21
g22
sbag7
(g8
g9
NtRp378
(dp379
g12
g29
sg14
S'Liberation Serif'
p380
sg16
I700
sg17
g13
sg18
g13
sg19
S'/usr/share/fonts/truetype/liberation/LiberationSerif-BoldItalic.ttf'
p381
sg21
g22
sbag7
(g8
g9
NtRp382
(dp383
g12
g13
sg14
S'Andale Mono'
p384
sg16
I400
sg17
g13
sg18
g13
sg19
S'/usr/share/fonts/truetype/msttcorefonts/andalemo.ttf'
p385
sg21
g22
sbag7
(g8
g9
NtRp386
(dp387
g12
g13
sg14
S'DejaVu Sans'
p388
sg16
I400
sg17
g13
sg18
g13
sg19
S'/usr/share/fonts/truetype/ttf-dejavu/DejaVuSans.ttf'
p389
sg21
g22
sbag7
(g8
g9
NtRp390
(dp391
g12
g29
sg14
S'Arial'
p392
sg16
I700
sg17
g13
sg18
g13
sg19
S'/usr/share/fonts/truetype/msttcorefonts/arialbi.ttf'
p393
sg21
g22
sbag7
(g8
g9
NtRp394
(dp395
g12
g13
sg14
S'Liberation Serif'
p396
sg16
I700
sg17
g13
sg18
g13
sg19
S'/usr/share/fonts/truetype/liberation/LiberationSerif-Bold.ttf'
p397
sg21
g22
sbag7
(g8
g9
NtRp398
(dp399
g12
g29
sg14
S'Liberation Sans'
p400
sg16
I400
sg17
g13
sg18
g13
sg19
S'/usr/share/fonts/truetype/liberation/LiberationSans-Italic.ttf'
p401
sg21
g22
sbag7
(g8
g9
NtRp402
(dp403
g12
g13
sg14
S'Verdana'
p404
sg16
I400
sg17
g13
sg18
g13
sg19
S'/usr/share/fonts/truetype/msttcorefonts/Verdana.ttf'
p405
sg21
g22
sbag7
(g8
g9
NtRp406
(dp407
g12
g13
sg14
S'NanumMyeongjo'
p408
sg16
I700
sg17
g13
sg18
g13
sg19
S'/usr/share/fonts/truetype/nanum/NanumMyeongjoBold.ttf'
p409
sg21
g22
sbag7
(g8
g9
NtRp410
(dp411
g12
g13
sg14
S'Waree'
p412
sg16
I700
sg17
g13
sg18
g13
sg19
S'/usr/share/fonts/truetype/tlwg/Waree-Bold.ttf'
p413
sg21
g22
sbag7
(g8
g9
NtRp414
(dp415
g12
g13
sg14
S'UnGraphic'
p416
sg16
I400
sg17
g13
sg18
g13
sg19
S'/usr/share/fonts/truetype/unfonts-core/UnGraphic.ttf'
p417
sg21
g22
sbag7
(g8
g9
NtRp418
(dp419
g12
g29
sg14
S'Courier New'
p420
sg16
I400
sg17
g13
sg18
g13
sg19
S'/usr/share/fonts/truetype/msttcorefonts/Courier_New_Italic.ttf'
p421
sg21
g22
sbag7
(g8
g9
NtRp422
(dp423
g12
g13
sg14
S'Ume P Gothic C5'
p424
sg16
I400
sg17
g13
sg18
g13
sg19
S'/usr/share/fonts/truetype/horai-umefont/ume-pgc5.ttf'
p425
sg21
g22
sbag7
(g8
g9
NtRp426
(dp427
g12
g13
sg14
S'Phetsarath OT'
p428
sg16
I400
sg17
g13
sg18
g13
sg19
S'/usr/share/fonts/truetype/lao/Phetsarath_OT.ttf'
p429
sg21
g22
sbag7
(g8
g9
NtRp430
(dp431
g12
g175
sg14
S'DejaVu Sans'
p432
sg16
I400
sg17
g171
sg18
g13
sg19
S'/usr/share/fonts/truetype/ttf-dejavu/DejaVuSansCondensed-Oblique.ttf'
p433
sg21
g22
sbag7
(g8
g9
NtRp434
(dp435
g12
g13
sg14
S'Courier New'
p436
sg16
I400
sg17
g13
sg18
g13
sg19
S'/usr/share/fonts/truetype/msttcorefonts/cour.ttf'
p437
sg21
g22
sbag7
(g8
g9
NtRp438
(dp439
g12
g13
sg14
S'ori1Uni'
p440
sg16
I500
sg17
g13
sg18
g13
sg19
S'/usr/share/fonts/truetype/ttf-indic-fonts-core/utkal.ttf'
p441
sg21
g22
sbag7
(g8
g9
NtRp442
(dp443
g12
g13
sg14
S'KacstQurn'
p444
sg16
I400
sg17
g13
sg18
g13
sg19
S'/usr/share/fonts/truetype/kacst/KacstQurn.ttf'
p445
sg21
g22
sbag7
(g8
g9
NtRp446
(dp447
g12
g13
sg14
S'KacstDigital'
p448
sg16
I400
sg17
g13
sg18
g13
sg19
S'/usr/share/fonts/truetype/kacst/KacstDigital.ttf'
p449
sg21
g22
sbag7
(g8
g9
NtRp450
(dp451
g12
g13
sg14
S'TakaoPGothic'
p452
sg16
I400
sg17
g13
sg18
g13
sg19
S'/usr/share/fonts/truetype/takao-gothic/TakaoPGothic.ttf'
p453
sg21
g22
sbag7
(g8
g9
NtRp454
(dp455
g12
g13
sg14
S'Liberation Sans'
p456
sg16
I400
sg17
g13
sg18
g13
sg19
S'/usr/share/fonts/truetype/liberation/LiberationSans-Regular.ttf'
p457
sg21
g22
sbag7
(g8
g9
NtRp458
(dp459
g12
g13
sg14
S'Droid Sans'
p460
sg16
I400
sg17
g13
sg18
g13
sg19
S'/usr/share/fonts/truetype/droid/DroidSans.ttf'
p461
sg21
g22
sbag7
(g8
g9
NtRp462
(dp463
g12
g29
sg14
S'DejaVu Serif'
p464
sg16
I700
sg17
g13
sg18
g13
sg19
S'/usr/share/fonts/truetype/ttf-dejavu/DejaVuSerif-BoldItalic.ttf'
p465
sg21
g22
sbag7
(g8
g9
NtRp466
(dp467
g12
g13
sg14
S'KacstScreen'
p468
sg16
I400
sg17
g13
sg18
g13
sg19
S'/usr/share/fonts/truetype/kacst/KacstScreen.ttf'
p469
sg21
g22
sbag7
(g8
g9
NtRp470
(dp471
g12
g13
sg14
S'Trebuchet MS'
p472
sg16
I400
sg17
g13
sg18
g13
sg19
S'/usr/share/fonts/truetype/msttcorefonts/Trebuchet_MS.ttf'
p473
sg21
g22
sbag7
(g8
g9
NtRp474
(dp475
g12
g29
sg14
S'GFS Neohellenic'
p476
sg16
I400
sg17
g13
sg18
g13
sg19
S'/usr/share/fonts/truetype/neohellenic/GFSNeohellenicIt.otf'
p477
sg21
g22
sbag7
(g8
g9
NtRp478
(dp479
g12
g13
sg14
S'UnDotum'
p480
sg16
I700
sg17
g13
sg18
g13
sg19
S'/usr/share/fonts/truetype/unfonts-core/UnDotumBold.ttf'
p481
sg21
g22
sbag7
(g8
g9
NtRp482
(dp483
g12
g13
sg14
S'Ume UI Gothic O5'
p484
sg16
I400
sg17
g13
sg18
g13
sg19
S'/usr/share/fonts/truetype/horai-umefont/ume-ugo5.ttf'
p485
sg21
g22
sbag7
(g8
g9
NtRp486
(dp487
g12
g13
sg14
S'Kedage'
p488
sg16
I700
sg17
g13
sg18
g13
sg19
S'/usr/share/fonts/truetype/ttf-indic-fonts-core/Kedage-b.ttf'
p489
sg21
g22
sbag7
(g8
g9
NtRp490
(dp491
g12
g13
sg14
S'DejaVu Serif'
p492
sg16
I700
sg17
g171
sg18
g13
sg19
S'/usr/share/fonts/truetype/ttf-dejavu/DejaVuSerifCondensed-Bold.ttf'
p493
sg21
g22
sbag7
(g8
g9
NtRp494
(dp495
g12
g13
sg14
S'Ubuntu Mono'
p496
sg16
I400
sg17
g13
sg18
g13
sg19
S'/usr/share/fonts/truetype/ubuntu-font-family/UbuntuMono-R.ttf'
p497
sg21
g22
sbag7
(g8
g9
NtRp498
(dp499
g12
g13
sg14
S'GFS Olga'
p500
sg16
I400
sg17
g13
sg18
g13
sg19
S'/usr/share/fonts/truetype/olga/GFSOlga.otf'
p501
sg21
g22
sbag7
(g8
g9
NtRp502
(dp503
g12
g29
sg14
S'Trebuchet MS'
p504
sg16
I400
sg17
g13
sg18
g13
sg19
S'/usr/share/fonts/truetype/msttcorefonts/Trebuchet_MS_Italic.ttf'
p505
sg21
g22
sbag7
(g8
g9
NtRp506
(dp507
g12
g13
sg14
S'Courier New'
p508
sg16
I400
sg17
g13
sg18
g13
sg19
S'/usr/share/fonts/truetype/msttcorefonts/Courier_New.ttf'
p509
sg21
g22
sbag7
(g8
g9
NtRp510
(dp511
g12
g13
sg14
S'Comic Sans MS'
p512
sg16
I700
sg17
g13
sg18
g13
sg19
S'/usr/share/fonts/truetype/msttcorefonts/comicbd.ttf'
p513
sg21
g22
sbag7
(g8
g9
NtRp514
(dp515
g12
g13
sg14
S'Norasi'
p516
sg16
I700
sg17
g13
sg18
g13
sg19
S'/usr/share/fonts/truetype/tlwg/Norasi-Bold.ttf'
p517
sg21
g22
sbag7
(g8
g9
NtRp518
(dp519
g12
g29
sg14
S'Norasi'
p520
sg16
I700
sg17
g13
sg18
g13
sg19
S'/usr/share/fonts/truetype/tlwg/Norasi-BoldItalic.ttf'
p521
sg21
g22
sbag7
(g8
g9
NtRp522
(dp523
g12
g13
sg14
S'Arial'
p524
sg16
I400
sg17
g13
sg18
g13
sg19
S'/usr/share/fonts/truetype/msttcorefonts/Arial.ttf'
p525
sg21
g22
sbag7
(g8
g9
NtRp526
(dp527
g12
g13
sg14
S'UnPilgi'
p528
sg16
I700
sg17
g13
sg18
g13
sg19
S'/usr/share/fonts/truetype/unfonts-core/UnPilgiBold.ttf'
p529
sg21
g22
sbag7
(g8
g9
NtRp530
(dp531
g12
g13
sg14
S'Umpush'
p532
sg16
I700
sg17
g13
sg18
g13
sg19
S'/usr/share/fonts/truetype/tlwg/Umpush-Bold.ttf'
p533
sg21
g22
sbag7
(g8
g9
NtRp534
(dp535
g12
g29
sg14
S'Courier New'
p536
sg16
I700
sg17
g13
sg18
g13
sg19
S'/usr/share/fonts/truetype/msttcorefonts/courbi.ttf'
p537
sg21
g22
sbag7
(g8
g9
NtRp538
(dp539
g12
g13
sg14
S'Times New Roman'
p540
sg16
I500
sg17
g13
sg18
g13
sg19
S'/usr/share/fonts/truetype/msttcorefonts/times.ttf'
p541
sg21
g22
sbag7
(g8
g9
NtRp542
(dp543
g12
g13
sg14
S'DejaVu Sans'
p544
sg16
I700
sg17
g171
sg18
g13
sg19
S'/usr/share/fonts/truetype/ttf-dejavu/DejaVuSansCondensed-Bold.ttf'
p545
sg21
g22
sbag7
(g8
g9
NtRp546
(dp547
g12
g29
sg14
S'Verdana'
p548
sg16
I400
sg17
g13
sg18
g13
sg19
S'/usr/share/fonts/truetype/msttcorefonts/Verdana_Italic.ttf'
p549
sg21
g22
sbag7
(g8
g9
NtRp550
(dp551
g12
g13
sg14
S'UnGraphic'
p552
sg16
I700
sg17
g13
sg18
g13
sg19
S'/usr/share/fonts/truetype/unfonts-core/UnGraphicBold.ttf'
p553
sg21
g22
sbag7
(g8
g9
NtRp554
(dp555
g12
g13
sg14
S'FreeMono'
p556
sg16
I400
sg17
g13
sg18
g13
sg19
S'/usr/share/fonts/truetype/freefont/FreeMono.ttf'
p557
sg21
g22
sbag7
(g8
g9
NtRp558
(dp559
g12
g13
sg14
S'Mallige'
p560
sg16
I400
sg17
g13
sg18
g13
sg19
S'/usr/share/fonts/truetype/ttf-indic-fonts-core/Malige-n.ttf'
p561
sg21
g22
sbag7
(g8
g9
NtRp562
(dp563
g12
g13
sg14
S'KacstNaskh'
p564
sg16
I400
sg17
g13
sg18
g13
sg19
S'/usr/share/fonts/truetype/kacst/KacstNaskh.ttf'
p565
sg21
g22
sbag7
(g8
g9
NtRp566
(dp567
g12
g13
sg14
S'Rekha'
p568
sg16
I400
sg17
g13
sg18
g13
sg19
S'/usr/share/fonts/truetype/ttf-indic-fonts-core/Rekha.ttf'
p569
sg21
g22
sbag7
(g8
g9
NtRp570
(dp571
g12
g29
sg14
S'Liberation Sans Narrow'
p572
sg16
I700
sg17
g171
sg18
g13
sg19
S'/usr/share/fonts/truetype/liberation/LiberationSansNarrow-BoldItalic.ttf'
p573
sg21
g22
sbag7
(g8
g9
NtRp574
(dp575
g12
g175
sg14
S'Norasi'
p576
sg16
I700
sg17
g13
sg18
g13
sg19
S'/usr/share/fonts/truetype/tlwg/Norasi-BoldOblique.ttf'
p577
sg21
g22
sbag7
(g8
g9
NtRp578
(dp579
g12
g13
sg14
S'Trebuchet MS'
p580
sg16
I400
sg17
g13
sg18
g13
sg19
S'/usr/share/fonts/truetype/msttcorefonts/trebuc.ttf'
p581
sg21
g22
sbag7
(g8
g9
NtRp582
(dp583
g12
g29
sg14
S'DejaVu Serif'
p584
sg16
I700
sg17
g171
sg18
g13
sg19
S'/usr/share/fonts/truetype/ttf-dejavu/DejaVuSerifCondensed-BoldItalic.ttf'
p585
sg21
g22
sbag7
(g8
g9
NtRp586
(dp587
g12
g13
sg14
S'Sawasdee'
p588
sg16
I400
sg17
g13
sg18
g13
sg19
S'/usr/share/fonts/truetype/tlwg/Sawasdee.ttf'
p589
sg21
g22
sbag7
(g8
g9
NtRp590
(dp591
g12
g13
sg14
S'KacstOne'
p592
sg16
I400
sg17
g13
sg18
g13
sg19
S'/usr/share/fonts/truetype/kacst-one/KacstOne.ttf'
p593
sg21
g22
sbag7
(g8
g9
NtRp594
(dp595
g12
g13
sg14
S'Lohit Gujarati'
p596
sg16
I400
sg17
g13
sg18
g13
sg19
S'/usr/share/fonts/truetype/ttf-indic-fonts-core/lohit_gu.ttf'
p597
sg21
g22
sbag7
(g8
g9
NtRp598
(dp599
g12
g13
sg14
S'UnDinaru'
p600
sg16
I700
sg17
g13
sg18
g13
sg19
S'/usr/share/fonts/truetype/unfonts-core/UnDinaruBold.ttf'
p601
sg21
g22
sbag7
(g8
g9
NtRp602
(dp603
g12
g13
sg14
S'FreeSans'
p604
sg16
I700
sg17
g13
sg18
g13
sg19
S'/usr/share/fonts/truetype/freefont/FreeSansBold.ttf'
p605
sg21
g22
sbag7
(g8
g9
NtRp606
(dp607
g12
g13
sg14
S'Liberation Mono'
p608
sg16
I700
sg17
g13
sg18
g13
sg19
S'/usr/share/fonts/truetype/liberation/LiberationMono-Bold.ttf'
p609
sg21
g22
sbag7
(g8
g9
NtRp610
(dp611
g12
g175
sg14
S'Tlwg Typist'
p612
sg16
I700
sg17
g13
sg18
g13
sg19
S'/usr/share/fonts/truetype/tlwg/TlwgTypist-BoldOblique.ttf'
p613
sg21
g22
sbag7
(g8
g9
NtRp614
(dp615
g12
g13
sg14
S'Lohit Bengali'
p616
sg16
I400
sg17
g13
sg18
g13
sg19
S'/usr/share/fonts/truetype/ttf-indic-fonts-core/lohit_bn.ttf'
p617
sg21
g22
sbag7
(g8
g9
NtRp618
(dp619
g12
g13
sg14
S'Garuda'
p620
sg16
I400
sg17
g13
sg18
g13
sg19
S'/usr/share/fonts/truetype/tlwg/Garuda.ttf'
p621
sg21
g22
sbag7
(g8
g9
NtRp622
(dp623
g12
g13
sg14
S'GFS Didot'
p624
sg16
I400
sg17
g13
sg18
g13
sg19
S'/usr/share/fonts/truetype/didot/GFSDidot.otf'
p625
sg21
g22
sbag7
(g8
g9
NtRp626
(dp627
g12
g175
sg14
S'TlwgMono'
p628
sg16
I400
sg17
g13
sg18
g13
sg19
S'/usr/share/fonts/truetype/tlwg/TlwgMono-Oblique.ttf'
p629
sg21
g22
sbag7
(g8
g9
NtRp630
(dp631
g12
g13
sg14
S'GFS Baskerville'
p632
sg16
I400
sg17
g13
sg18
g13
sg19
S'/usr/share/fonts/truetype/baskerville/GFSBaskerville.otf'
p633
sg21
g22
sbag7
(g8
g9
NtRp634
(dp635
g12
g13
sg14
S'Liberation Serif'
p636
sg16
I400
sg17
g13
sg18
g13
sg19
S'/usr/share/fonts/truetype/liberation/LiberationSerif-Regular.ttf'
p637
sg21
g22
sbag7
(g8
g9
NtRp638
(dp639
g12
g175
sg14
S'DejaVu Sans Mono'
p640
sg16
I700
sg17
g13
sg18
g13
sg19
S'/usr/share/fonts/truetype/ttf-dejavu/DejaVuSansMono-BoldOblique.ttf'
p641
sg21
g22
sbag7
(g8
g9
NtRp642
(dp643
g12
g13
sg14
S'Purisa'
p644
sg16
I700
sg17
g13
sg18
g13
sg19
S'/usr/share/fonts/truetype/tlwg/Purisa-Bold.ttf'
p645
sg21
g22
sbag7
(g8
g9
NtRp646
(dp647
g12
g13
sg14
S'GFS Theokritos'
p648
sg16
I400
sg17
g13
sg18
g13
sg19
S'/usr/share/fonts/truetype/theokritos/GFSTheokritos.otf'
p649
sg21
g22
sbag7
(g8
g9
NtRp650
(dp651
g12
g13
sg14
S'FreeMono'
p652
sg16
I700
sg17
g13
sg18
g13
sg19
S'/usr/share/fonts/truetype/freefont/FreeMonoBold.ttf'
p653
sg21
g22
sbag7
(g8
g9
NtRp654
(dp655
g12
g13
sg14
S'DejaVu Sans'
p656
sg16
I700
sg17
g13
sg18
g13
sg19
S'/usr/share/fonts/truetype/ttf-dejavu/DejaVuSans-Bold.ttf'
p657
sg21
g22
sbag7
(g8
g9
NtRp658
(dp659
g12
g13
sg14
S'Tlwg Typist'
p660
sg16
I700
sg17
g13
sg18
g13
sg19
S'/usr/share/fonts/truetype/tlwg/TlwgTypist-Bold.ttf'
p661
sg21
g22
sbag7
(g8
g9
NtRp662
(dp663
g12
g13
sg14
S'Droid Sans Hebrew'
p664
sg16
I400
sg17
g13
sg18
g13
sg19
S'/usr/share/fonts/truetype/droid/DroidSansHebrew.ttf'
p665
sg21
g22
sbag7
(g8
g9
NtRp666
(dp667
g12
g13
sg14
S'DejaVu Sans'
p668
sg16
I200
sg17
g13
sg18
g13
sg19
S'/usr/share/fonts/truetype/ttf-dejavu/DejaVuSans-ExtraLight.ttf'
p669
sg21
g22
sbag7
(g8
g9
NtRp670
(dp671
g12
g13
sg14
S'Georgia'
p672
sg16
I400
sg17
g13
sg18
g13
sg19
S'/usr/share/fonts/truetype/msttcorefonts/georgia.ttf'
p673
sg21
g22
sbag7
(g8
g9
NtRp674
(dp675
g12
g13
sg14
S'KacstBook'
p676
sg16
I400
sg17
g13
sg18
g13
sg19
S'/usr/share/fonts/truetype/kacst/KacstBook.ttf'
p677
sg21
g22
sbag7
(g8
g9
NtRp678
(dp679
g12
g13
sg14
S'GFS Artemisia'
p680
sg16
I400
sg17
g13
sg18
g13
sg19
S'/usr/share/fonts/truetype/artemisia/GFSArtemisia.otf'
p681
sg21
g22
sbag7
(g8
g9
NtRp682
(dp683
g12
g13
sg14
S'KacstFarsi'
p684
sg16
I400
sg17
g13
sg18
g13
sg19
S'/usr/share/fonts/truetype/kacst/KacstFarsi.ttf'
p685
sg21
g22
sbag7
(g8
g9
NtRp686
(dp687
g12
g29
sg14
S'Verdana'
p688
sg16
I700
sg17
g13
sg18
g13
sg19
S'/usr/share/fonts/truetype/msttcorefonts/verdanaz.ttf'
p689
sg21
g22
sbag7
(g8
g9
NtRp690
(dp691
g12
g13
sg14
S'Purisa'
p692
sg16
I400
sg17
g13
sg18
g13
sg19
S'/usr/share/fonts/truetype/tlwg/Purisa.ttf'
p693
sg21
g22
sbag7
(g8
g9
NtRp694
(dp695
g12
g13
sg14
S'Droid Sans Fallback'
p696
sg16
I400
sg17
g13
sg18
g13
sg19
S'/usr/share/fonts/truetype/droid/DroidSansFallback.ttf'
p697
sg21
g22
sbag7
(g8
g9
NtRp698
(dp699
g12
g29
sg14
S'Georgia'
p700
sg16
I400
sg17
g13
sg18
g13
sg19
S'/usr/share/fonts/truetype/msttcorefonts/georgiai.ttf'
p701
sg21
g22
sbag7
(g8
g9
NtRp702
(dp703
g12
g13
sg14
S'Andale Mono'
p704
sg16
I400
sg17
g13
sg18
g13
sg19
S'/usr/share/fonts/truetype/msttcorefonts/Andale_Mono.ttf'
p705
sg21
g22
sbag7
(g8
g9
NtRp706
(dp707
g12
g29
sg14
S'Liberation Sans'
p708
sg16
I700
sg17
g13
sg18
g13
sg19
S'/usr/share/fonts/truetype/liberation/LiberationSans-BoldItalic.ttf'
p709
sg21
g22
sbag7
(g8
g9
NtRp710
(dp711
g12
g29
sg14
S'Georgia'
p712
sg16
I400
sg17
g13
sg18
g13
sg19
S'/usr/share/fonts/truetype/msttcorefonts/Georgia_Italic.ttf'
p713
sg21
g22
sbag7
(g8
g9
NtRp714
(dp715
g12
g29
sg14
S'Ubuntu'
p716
sg16
I200
sg17
g13
sg18
g13
sg19
S'/usr/share/fonts/truetype/ubuntu-font-family/Ubuntu-LI.ttf'
p717
sg21
g22
sbag7
(g8
g9
NtRp718
(dp719
g12
g13
sg14
S'Droid Sans Mono'
p720
sg16
I400
sg17
g13
sg18
g13
sg19
S'/usr/share/fonts/truetype/droid/DroidSansMono.ttf'
p721
sg21
g22
sbag7
(g8
g9
NtRp722
(dp723
g12
g13
sg14
S'Pothana2000'
p724
sg16
I400
sg17
g13
sg18
g13
sg19
S'/usr/share/fonts/truetype/ttf-indic-fonts-core/Pothana2000.ttf'
p725
sg21
g22
sbag7
(g8
g9
NtRp726
(dp727
g12
g175
sg14
S'Umpush'
p728
sg16
I400
sg17
g13
sg18
g13
sg19
S'/usr/share/fonts/truetype/tlwg/Umpush-Oblique.ttf'
p729
sg21
g22
sbag7
(g8
g9
NtRp730
(dp731
g12
g13
sg14
S'NanumGothic'
p732
sg16
I700
sg17
g13
sg18
g13
sg19
S'/usr/share/fonts/truetype/nanum/NanumGothicBold.ttf'
p733
sg21
g22
sbag7
(g8
g9
NtRp734
(dp735
g12
g29
sg14
S'Liberation Mono'
p736
sg16
I700
sg17
g13
sg18
g13
sg19
S'/usr/share/fonts/truetype/liberation/LiberationMono-BoldItalic.ttf'
p737
sg21
g22
sbag7
(g8
g9
NtRp738
(dp739
g12
g175
sg14
S'Purisa'
p740
sg16
I700
sg17
g13
sg18
g13
sg19
S'/usr/share/fonts/truetype/tlwg/Purisa-BoldOblique.ttf'
p741
sg21
g22
sbag7
(g8
g9
NtRp742
(dp743
g12
g175
sg14
S'Loma'
p744
sg16
I700
sg17
g13
sg18
g13
sg19
S'/usr/share/fonts/truetype/tlwg/Loma-BoldOblique.ttf'
p745
sg21
g22
sbag7
(g8
g9
NtRp746
(dp747
g12
g29
sg14
S'Courier New'
p748
sg16
I400
sg17
g13
sg18
g13
sg19
S'/usr/share/fonts/truetype/msttcorefonts/couri.ttf'
p749
sg21
g22
sbag7
(g8
g9
NtRp750
(dp751
g12
g29
sg14
S'GFS Didot'
p752
sg16
I700
sg17
g13
sg18
g13
sg19
S'/usr/share/fonts/truetype/artemisia/GFSArtemisiaBoldIt.otf'
p753
sg21
g22
sbag7
(g8
g9
NtRp754
(dp755
g12
g13
sg14
S'TlwgTypewriter'
p756
sg16
I400
sg17
g13
sg18
g13
sg19
S'/usr/share/fonts/truetype/tlwg/TlwgTypewriter.ttf'
p757
sg21
g22
sbag7
(g8
g9
NtRp758
(dp759
g12
g29
sg14
S'Kinnari'
p760
sg16
I700
sg17
g13
sg18
g13
sg19
S'/usr/share/fonts/truetype/tlwg/Kinnari-BoldItalic.ttf'
p761
sg21
g22
sbag7
(g8
g9
NtRp762
(dp763
g12
g13
sg14
S'Ume UI Gothic'
p764
sg16
I400
sg17
g13
sg18
g13
sg19
S'/usr/share/fonts/truetype/horai-umefont/ume-ugo4.ttf'
p765
sg21
g22
sbag7
(g8
g9
NtRp766
(dp767
g12
g13
sg14
S'Ubuntu Mono'
p768
sg16
I700
sg17
g13
sg18
g13
sg19
S'/usr/share/fonts/truetype/ubuntu-font-family/UbuntuMono-B.ttf'
p769
sg21
g22
sbag7
(g8
g9
NtRp770
(dp771
g12
g13
sg14
S'esint10'
p772
sg16
I400
sg17
g13
sg18
g13
sg19
S'/usr/share/fonts/truetype/ttf-lyx/esint10.ttf'
p773
sg21
g22
sbag7
(g8
g9
NtRp774
(dp775
g12
g13
sg14
S'Loma'
p776
sg16
I400
sg17
g13
sg18
g13
sg19
S'/usr/share/fonts/truetype/tlwg/Loma.ttf'
p777
sg21
g22
sbag7
(g8
g9
NtRp778
(dp779
g12
g29
sg14
S'Droid Serif'
p780
sg16
I700
sg17
g13
sg18
g13
sg19
S'/usr/share/fonts/truetype/droid/DroidSerif-BoldItalic.ttf'
p781
sg21
g22
sbag7
(g8
g9
NtRp782
(dp783
g12
g13
sg14
S'Ume P Gothic S5'
p784
sg16
I400
sg17
g13
sg18
g13
sg19
S'/usr/share/fonts/truetype/horai-umefont/ume-pgs5.ttf'
p785
sg21
g22
sbag7
(g8
g9
NtRp786
(dp787
g12
g13
sg14
S'UnGungseo'
p788
sg16
I400
sg17
g13
sg18
g13
sg19
S'/usr/share/fonts/truetype/unfonts-core/UnGungseo.ttf'
p789
sg21
g22
sbag7
(g8
g9
NtRp790
(dp791
g12
g13
sg14
S'Arial Black'
p792
sg16
I900
sg17
g13
sg18
g13
sg19
S'/usr/share/fonts/truetype/msttcorefonts/ariblk.ttf'
p793
sg21
g22
sbag7
(g8
g9
NtRp794
(dp795
g12
g13
sg14
S'OpenSymbol'
p796
sg16
I400
sg17
g13
sg18
g13
sg19
S'/usr/share/fonts/truetype/openoffice/opens___.ttf'
p797
sg21
g22
sbag7
(g8
g9
NtRp798
(dp799
g12
g29
sg14
S'Verdana'
p800
sg16
I700
sg17
g13
sg18
g13
sg19
S'/usr/share/fonts/truetype/msttcorefonts/Verdana_Bold_Italic.ttf'
p801
sg21
g22
sbag7
(g8
g9
NtRp802
(dp803
g12
g29
sg14
S'GentiumAlt'
p804
sg16
I400
sg17
g13
sg18
g13
sg19
S'/usr/share/fonts/truetype/gentium/GenAI102.ttf'
p805
sg21
g22
sbag7
(g8
g9
NtRp806
(dp807
g12
g13
sg14
S'gargi'
p808
sg16
I400
sg17
g13
sg18
g13
sg19
S'/usr/share/fonts/truetype/ttf-indic-fonts-core/gargi.ttf'
p809
sg21
g22
sbag7
(g8
g9
NtRp810
(dp811
g12
g29
sg14
S'Norasi'
p812
sg16
I400
sg17
g13
sg18
g13
sg19
S'/usr/share/fonts/truetype/tlwg/Norasi-Italic.ttf'
p813
sg21
g22
sbag7
(g8
g9
NtRp814
(dp815
g12
g29
sg14
S'Ubuntu'
p816
sg16
I700
sg17
g13
sg18
g13
sg19
S'/usr/share/fonts/truetype/ubuntu-font-family/Ubuntu-BI.ttf'
p817
sg21
g22
sbag7
(g8
g9
NtRp818
(dp819
g12
g29
sg14
S'GFS Artemisia'
p820
sg16
I400
sg17
g13
sg18
g13
sg19
S'/usr/share/fonts/truetype/artemisia/GFSArtemisiaIt.otf'
p821
sg21
g22
sbag7
(g8
g9
NtRp822
(dp823
g12
g13
sg14
S'Khmer OS System'
p824
sg16
I400
sg17
g13
sg18
g13
sg19
S'/usr/share/fonts/truetype/ttf-khmeros-core/KhmerOSsys.ttf'
p825
sg21
g22
sbag7
(g8
g9
NtRp826
(dp827
g12
g13
sg14
S'Comic Sans MS'
p828
sg16
I400
sg17
g13
sg18
g13
sg19
S'/usr/share/fonts/truetype/msttcorefonts/Comic_Sans_MS.ttf'
p829
sg21
g22
sbag7
(g8
g9
NtRp830
(dp831
g12
g175
sg14
S'Tlwg Typist'
p832
sg16
I400
sg17
g13
sg18
g13
sg19
S'/usr/share/fonts/truetype/tlwg/TlwgTypist-Oblique.ttf'
p833
sg21
g22
sbag7
(g8
g9
NtRp834
(dp835
g12
g13
sg14
S'Norasi'
p836
sg16
I400
sg17
g13
sg18
g13
sg19
S'/usr/share/fonts/truetype/tlwg/Norasi.ttf'
p837
sg21
g22
sbag7
(g8
g9
NtRp838
(dp839
g12
g29
sg14
S'DejaVu Serif'
p840
sg16
I400
sg17
g171
sg18
g13
sg19
S'/usr/share/fonts/truetype/ttf-dejavu/DejaVuSerifCondensed-Italic.ttf'
p841
sg21
g22
sbag7
(g8
g9
NtRp842
(dp843
g12
g13
sg14
S'Arial Black'
p844
sg16
I900
sg17
g13
sg18
g13
sg19
S'/usr/share/fonts/truetype/msttcorefonts/Arial_Black.ttf'
p845
sg21
g22
sbag7
(g8
g9
NtRp846
(dp847
g12
g13
sg14
S'GFS Didot'
p848
sg16
I700
sg17
g13
sg18
g13
sg19
S'/usr/share/fonts/truetype/didot/GFSDidotBold.otf'
p849
sg21
g22
sbag7
(g8
g9
NtRp850
(dp851
g12
g13
sg14
S'Webdings'
p852
sg16
I400
sg17
g13
sg18
g13
sg19
S'/usr/share/fonts/truetype/msttcorefonts/Webdings.ttf'
p853
sg21
g22
sbag7
(g8
g9
NtRp854
(dp855
g12
g13
sg14
S'Mukti Narrow'
p856
sg16
I700
sg17
g13
sg18
g13
sg19
S'/usr/share/fonts/truetype/ttf-indic-fonts-core/MuktiNarrowBold.ttf'
p857
sg21
g22
sbag7
(g8
g9
NtRp858
(dp859
g12
g13
sg14
S'GentiumAlt'
p860
sg16
I400
sg17
g13
sg18
g13
sg19
S'/usr/share/fonts/truetype/gentium/GenAR102.ttf'
p861
sg21
g22
sbag7
(g8
g9
NtRp862
(dp863
g12
g13
sg14
S'KacstOne'
p864
sg16
I700
sg17
g13
sg18
g13
sg19
S'/usr/share/fonts/truetype/kacst-one/KacstOne-Bold.ttf'
p865
sg21
g22
sbag7
(g8
g9
NtRp866
(dp867
g12
g175
sg14
S'Umpush'
p868
sg16
I700
sg17
g13
sg18
g13
sg19
S'/usr/share/fonts/truetype/tlwg/Umpush-BoldOblique.ttf'
p869
sg21
g22
sbag7
(g8
g9
NtRp870
(dp871
g12
g13
sg14
S'UnPilgi'
p872
sg16
I400
sg17
g13
sg18
g13
sg19
S'/usr/share/fonts/truetype/unfonts-core/UnPilgi.ttf'
p873
sg21
g22
sbag7
(g8
g9
NtRp874
(dp875
g12
g175
sg14
S'FreeSans'
p876
sg16
I700
sg17
g13
sg18
g13
sg19
S'/usr/share/fonts/truetype/freefont/FreeSansBoldOblique.ttf'
p877
sg21
g22
sbag7
(g8
g9
NtRp878
(dp879
g12
g13
sg14
S'Ume P Mincho'
p880
sg16
I400
sg17
g13
sg18
g13
sg19
S'/usr/share/fonts/truetype/horai-umefont/ume-pmo3.ttf'
p881
sg21
g22
sbag7
(g8
g9
NtRp882
(dp883
g12
g29
sg14
S'Droid Serif'
p884
sg16
I400
sg17
g13
sg18
g13
sg19
S'/usr/share/fonts/truetype/droid/DroidSerif-Italic.ttf'
p885
sg21
g22
sbag7
(g8
g9
NtRp886
(dp887
g12
g13
sg14
S'Tlwg Typo'
p888
sg16
I700
sg17
g13
sg18
g13
sg19
S'/usr/share/fonts/truetype/tlwg/TlwgTypo-Bold.ttf'
p889
sg21
g22
sbag7
(g8
g9
NtRp890
(dp891
g12
g13
sg14
S'Verdana'
p892
sg16
I400
sg17
g13
sg18
g13
sg19
S'/usr/share/fonts/truetype/msttcorefonts/verdana.ttf'
p893
sg21
g22
sbag7
(g8
g9
NtRp894
(dp895
g12
g29
sg14
S'Ubuntu'
p896
sg16
I400
sg17
g13
sg18
g13
sg19
S'/usr/share/fonts/truetype/ubuntu-font-family/Ubuntu-RI.ttf'
p897
sg21
g22
sbag7
(g8
g9
NtRp898
(dp899
g12
g175
sg14
S'FreeMono'
p900
sg16
I700
sg17
g13
sg18
g13
sg19
S'/usr/share/fonts/truetype/freefont/FreeMonoBoldOblique.ttf'
p901
sg21
g22
sbag7
(g8
g9
NtRp902
(dp903
g12
g29
sg14
S'Liberation Serif'
p904
sg16
I400
sg17
g13
sg18
g13
sg19
S'/usr/share/fonts/truetype/liberation/LiberationSerif-Italic.ttf'
p905
sg21
g22
sbag7
(g8
g9
NtRp906
(dp907
g12
g13
sg14
S'TlwgTypewriter'
p908
sg16
I700
sg17
g13
sg18
g13
sg19
S'/usr/share/fonts/truetype/tlwg/TlwgTypewriter-Bold.ttf'
p909
sg21
g22
sbag7
(g8
g9
NtRp910
(dp911
g12
g175
sg14
S'Waree'
p912
sg16
I700
sg17
g13
sg18
g13
sg19
S'/usr/share/fonts/truetype/tlwg/Waree-BoldOblique.ttf'
p913
sg21
g22
sbag7
(g8
g9
NtRp914
(dp915
g12
g13
sg14
S'FreeSans'
p916
sg16
I400
sg17
g13
sg18
g13
sg19
S'/usr/share/fonts/truetype/freefont/FreeSans.ttf'
p917
sg21
g22
sbag7
(g8
g9
NtRp918
(dp919
g12
g13
sg14
S'UnDinaru'
p920
sg16
I200
sg17
g13
sg18
g13
sg19
S'/usr/share/fonts/truetype/unfonts-core/UnDinaruLight.ttf'
p921
sg21
g22
sbag7
(g8
g9
NtRp922
(dp923
g12
g13
sg14
S'DejaVu Sans Mono'
p924
sg16
I700
sg17
g13
sg18
g13
sg19
S'/usr/share/fonts/truetype/ttf-dejavu/DejaVuSansMono-Bold.ttf'
p925
sg21
g22
sbag7
(g8
g9
NtRp926
(dp927
g12
g29
sg14
S'Arial'
p928
sg16
I400
sg17
g13
sg18
g13
sg19
S'/usr/share/fonts/truetype/msttcorefonts/ariali.ttf'
p929
sg21
g22
sbag7
(g8
g9
NtRp930
(dp931
g12
g29
sg14
S'Gentium'
p932
sg16
I400
sg17
g13
sg18
g13
sg19
S'/usr/share/fonts/truetype/gentium/GenI102.ttf'
p933
sg21
g22
sbag7
(g8
g9
NtRp934
(dp935
g12
g29
sg14
S'FreeSerif'
p936
sg16
I700
sg17
g13
sg18
g13
sg19
S'/usr/share/fonts/truetype/freefont/FreeSerifBoldItalic.ttf'
p937
sg21
g22
sbag7
(g8
g9
NtRp938
(dp939
g12
g29
sg14
S'Trebuchet MS'
p940
sg16
I700
sg17
g13
sg18
g13
sg19
S'/usr/share/fonts/truetype/msttcorefonts/trebucbi.ttf'
p941
sg21
g22
sbag7
(g8
g9
NtRp942
(dp943
g12
g13
sg14
S'Gentium'
p944
sg16
I400
sg17
g13
sg18
g13
sg19
S'/usr/share/fonts/truetype/gentium/GenR102.ttf'
p945
sg21
g22
sbag7
(g8
g9
NtRp946
(dp947
g12
g13
sg14
S'UnDinaru'
p948
sg16
I400
sg17
g13
sg18
g13
sg19
S'/usr/share/fonts/truetype/unfonts-core/UnDinaru.ttf'
p949
sg21
g22
sbag7
(g8
g9
NtRp950
(dp951
g12
g13
sg14
S'KacstArt'
p952
sg16
I400
sg17
g13
sg18
g13
sg19
S'/usr/share/fonts/truetype/kacst/KacstArt.ttf'
p953
sg21
g22
sbag7
(g8
g9
NtRp954
(dp955
g12
g13
sg14
S'Waree'
p956
sg16
I400
sg17
g13
sg18
g13
sg19
S'/usr/share/fonts/truetype/tlwg/Waree.ttf'
p957
sg21
g22
sbag7
(g8
g9
NtRp958
(dp959
g12
g13
sg14
S'Vemana2000'
p960
sg16
I400
sg17
g13
sg18
g13
sg19
S'/usr/share/fonts/truetype/ttf-indic-fonts-core/Vemana.ttf'
p961
sg21
g22
sbag7
(g8
g9
NtRp962
(dp963
g12
g13
sg14
S'Ume P Gothic O5'
p964
sg16
I400
sg17
g13
sg18
g13
sg19
S'/usr/share/fonts/truetype/horai-umefont/ume-pgo5.ttf'
p965
sg21
g22
sbag7
(g8
g9
NtRp966
(dp967
g12
g13
sg14
S'Umpush'
p968
sg16
I200
sg17
g13
sg18
g13
sg19
S'/usr/share/fonts/truetype/tlwg/Umpush-Light.ttf'
p969
sg21
g22
sbag7
(g8
g9
NtRp970
(dp971
g12
g29
sg14
S'Times New Roman'
p972
sg16
I500
sg17
g13
sg18
g13
sg19
S'/usr/share/fonts/truetype/msttcorefonts/timesi.ttf'
p973
sg21
g22
sbag7
(g8
g9
NtRp974
(dp975
g12
g29
sg14
S'Times New Roman'
p976
sg16
I500
sg17
g13
sg18
g13
sg19
S'/usr/share/fonts/truetype/msttcorefonts/Times_New_Roman_Italic.ttf'
p977
sg21
g22
sbag7
(g8
g9
NtRp978
(dp979
g12
g13
sg14
S'Kedage'
p980
sg16
I400
sg17
g13
sg18
g13
sg19
S'/usr/share/fonts/truetype/ttf-indic-fonts-core/Kedage-n.ttf'
p981
sg21
g22
sbag7
(g8
g9
NtRp982
(dp983
g12
g13
sg14
S'UnBatang'
p984
sg16
I700
sg17
g13
sg18
g13
sg19
S'/usr/share/fonts/truetype/unfonts-core/UnBatangBold.ttf'
p985
sg21
g22
sbag7
(g8
g9
NtRp986
(dp987
g12
g13
sg14
S'Lohit Tamil'
p988
sg16
I400
sg17
g13
sg18
g13
sg19
S'/usr/share/fonts/truetype/ttf-indic-fonts-core/lohit_ta.ttf'
p989
sg21
g22
sbag7
(g8
g9
NtRp990
(dp991
g12
g175
sg14
S'Tlwg Typo'
p992
sg16
I400
sg17
g13
sg18
g13
sg19
S'/usr/share/fonts/truetype/tlwg/TlwgTypo-Oblique.ttf'
p993
sg21
g22
sbag7
(g8
g9
NtRp994
(dp995
g12
g13
sg14
S'Ubuntu Condensed'
p996
sg16
I400
sg17
g171
sg18
g13
sg19
S'/usr/share/fonts/truetype/ubuntu-font-family/Ubuntu-C.ttf'
p997
sg21
g22
sbag7
(g8
g9
NtRp998
(dp999
g12
g13
sg14
S'Kinnari'
p1000
sg16
I400
sg17
g13
sg18
g13
sg19
S'/usr/share/fonts/truetype/tlwg/Kinnari.ttf'
p1001
sg21
g22
sbag7
(g8
g9
NtRp1002
(dp1003
g12
g29
sg14
S'Georgia'
p1004
sg16
I700
sg17
g13
sg18
g13
sg19
S'/usr/share/fonts/truetype/msttcorefonts/georgiaz.ttf'
p1005
sg21
g22
sbag7
(g8
g9
NtRp1006
(dp1007
g12
g29
sg14
S'Courier New'
p1008
sg16
I700
sg17
g13
sg18
g13
sg19
S'/usr/share/fonts/truetype/msttcorefonts/Courier_New_Bold_Italic.ttf'
p1009
sg21
g22
sbag7
(g8
g9
NtRp1010
(dp1011
g12
g13
sg14
S'GFS Neohellenic'
p1012
sg16
I400
sg17
g13
sg18
g13
sg19
S'/usr/share/fonts/truetype/neohellenic/GFSNeohellenic.otf'
p1013
sg21
g22
sbag7
(g8
g9
NtRp1014
(dp1015
g12
g29
sg14
S'Ubuntu Mono'
p1016
sg16
I700
sg17
g13
sg18
g13
sg19
S'/usr/share/fonts/truetype/ubuntu-font-family/UbuntuMono-BI.ttf'
p1017
sg21
g22
sbag7
(g8
g9
NtRp1018
(dp1019
g12
g13
sg14
S'Arial'
p1020
sg16
I700
sg17
g13
sg18
g13
sg19
S'/usr/share/fonts/truetype/msttcorefonts/arialbd.ttf'
p1021
sg21
g22
sbag7
(g8
g9
NtRp1022
(dp1023
g12
g13
sg14
S'Times New Roman'
p1024
sg16
I700
sg17
g13
sg18
g13
sg19
S'/usr/share/fonts/truetype/msttcorefonts/timesbd.ttf'
p1025
sg21
g22
sbag7
(g8
g9
NtRp1026
(dp1027
g12
g13
sg14
S'Rachana'
p1028
sg16
I400
sg17
g13
sg18
g13
sg19
S'/usr/share/fonts/truetype/ttf-indic-fonts-core/Rachana_04.ttf'
p1029
sg21
g22
sbag7
(g8
g9
NtRp1030
(dp1031
g12
g13
sg14
S'Trebuchet MS'
p1032
sg16
I700
sg17
g13
sg18
g13
sg19
S'/usr/share/fonts/truetype/msttcorefonts/Trebuchet_MS_Bold.ttf'
p1033
sg21
g22
sbag7
(g8
g9
NtRp1034
(dp1035
g12
g13
sg14
S'Ume Gothic S5'
p1036
sg16
I400
sg17
g13
sg18
g13
sg19
S'/usr/share/fonts/truetype/horai-umefont/ume-tgs5.ttf'
p1037
sg21
g22
sbag7
(g8
g9
NtRp1038
(dp1039
g12
g175
sg14
S'TlwgMono'
p1040
sg16
I700
sg17
g13
sg18
g13
sg19
S'/usr/share/fonts/truetype/tlwg/TlwgMono-BoldOblique.ttf'
p1041
sg21
g22
sbag7
(g8
g9
NtRp1042
(dp1043
g12
g29
sg14
S'DejaVu Serif'
p1044
sg16
I400
sg17
g13
sg18
g13
sg19
S'/usr/share/fonts/truetype/ttf-dejavu/DejaVuSerif-Italic.ttf'
p1045
sg21
g22
sbag7
(g8
g9
NtRp1046
(dp1047
g12
g13
sg14
S'Droid Sans Thai'
p1048
sg16
I400
sg17
g13
sg18
g13
sg19
S'/usr/share/fonts/truetype/droid/DroidSansThai.ttf'
p1049
sg21
g22
sbag7
(g8
g9
NtRp1050
(dp1051
g12
g13
sg14
S'Kinnari'
p1052
sg16
I700
sg17
g13
sg18
g13
sg19
S'/usr/share/fonts/truetype/tlwg/Kinnari-Bold.ttf'
p1053
sg21
g22
sbag7
(g8
g9
NtRp1054
(dp1055
g12
g175
sg14
S'FreeMono'
p1056
sg16
I400
sg17
g13
sg18
g13
sg19
S'/usr/share/fonts/truetype/freefont/FreeMonoOblique.ttf'
p1057
sg21
g22
sbag7
(g8
g9
NtRp1058
(dp1059
g12
g13
sg14
S'TlwgMono'
p1060
sg16
I400
sg17
g13
sg18
g13
sg19
S'/usr/share/fonts/truetype/tlwg/TlwgMono.ttf'
p1061
sg21
g22
sbag7
(g8
g9
NtRp1062
(dp1063
g12
g175
sg14
S'TlwgTypewriter'
p1064
sg16
I700
sg17
g13
sg18
g13
sg19
S'/usr/share/fonts/truetype/tlwg/TlwgTypewriter-BoldOblique.ttf'
p1065
sg21
g22
sbag7
(g8
g9
NtRp1066
(dp1067
g12
g13
sg14
S'Droid Sans'
p1068
sg16
I700
sg17
g13
sg18
g13
sg19
S'/usr/share/fonts/truetype/droid/DroidSans-Bold.ttf'
p1069
sg21
g22
sbag7
(g8
g9
NtRp1070
(dp1071
g12
g175
sg14
S'Kinnari'
p1072
sg16
I400
sg17
g13
sg18
g13
sg19
S'/usr/share/fonts/truetype/tlwg/Kinnari-Oblique.ttf'
p1073
sg21
g22
sbag7
(g8
g9
NtRp1074
(dp1075
g12
g13
sg14
S'Ume Gothic'
p1076
sg16
I400
sg17
g13
sg18
g13
sg19
S'/usr/share/fonts/truetype/horai-umefont/ume-tgo4.ttf'
p1077
sg21
g22
sbag7
(g8
g9
NtRp1078
(dp1079
g12
g175
sg14
S'DejaVu Sans Mono'
p1080
sg16
I400
sg17
g13
sg18
g13
sg19
S'/usr/share/fonts/truetype/ttf-dejavu/DejaVuSansMono-Oblique.ttf'
p1081
sg21
g22
sbag7
(g8
g9
NtRp1082
(dp1083
g12
g13
sg14
S'Liberation Sans Narrow'
p1084
sg16
I400
sg17
g171
sg18
g13
sg19
S'/usr/share/fonts/truetype/liberation/LiberationSansNarrow-Regular.ttf'
p1085
sg21
g22
sbag7
(g8
g9
NtRp1086
(dp1087
g12
g29
sg14
S'Trebuchet MS'
p1088
sg16
I400
sg17
g13
sg18
g13
sg19
S'/usr/share/fonts/truetype/msttcorefonts/trebucit.ttf'
p1089
sg21
g22
sbag7
(g8
g9
NtRp1090
(dp1091
g12
g13
sg14
S'Ume Gothic C5'
p1092
sg16
I400
sg17
g13
sg18
g13
sg19
S'/usr/share/fonts/truetype/horai-umefont/ume-tgc5.ttf'
p1093
sg21
g22
sbag7
(g8
g9
NtRp1094
(dp1095
g12
g13
sg14
S'Ume Gothic S4'
p1096
sg16
I400
sg17
g13
sg18
g13
sg19
S'/usr/share/fonts/truetype/horai-umefont/ume-tgs4.ttf'
p1097
sg21
g22
sbag7
(g8
g9
NtRp1098
(dp1099
g12
g29
sg14
S'Times New Roman'
p1100
sg16
I700
sg17
g13
sg18
g13
sg19
S'/usr/share/fonts/truetype/msttcorefonts/timesbi.ttf'
p1101
sg21
g22
sbag7
(g8
g9
NtRp1102
(dp1103
g12
g13
sg14
S'Ume Gothic C4'
p1104
sg16
I400
sg17
g13
sg18
g13
sg19
S'/usr/share/fonts/truetype/horai-umefont/ume-tgc4.ttf'
p1105
sg21
g22
sbag7
(g8
g9
NtRp1106
(dp1107
g12
g13
sg14
S'GFS Didot Classic'
p1108
sg16
I400
sg17
g13
sg18
g13
sg19
S'/usr/share/fonts/truetype/didot-classic/GFSDidotClassic.otf'
p1109
sg21
g22
sbag7
(g8
g9
NtRp1110
(dp1111
g12
g13
sg14
S'Ume P Gothic C4'
p1112
sg16
I400
sg17
g13
sg18
g13
sg19
S'/usr/share/fonts/truetype/horai-umefont/ume-pgc4.ttf'
p1113
sg21
g22
sbag7
(g8
g9
NtRp1114
(dp1115
g12
g29
sg14
S'Kinnari'
p1116
sg16
I400
sg17
g13
sg18
g13
sg19
S'/usr/share/fonts/truetype/tlwg/Kinnari-Italic.ttf'
p1117
sg21
g22
sbag7
(g8
g9
NtRp1118
(dp1119
g12
g175
sg14
S'Sawasdee'
p1120
sg16
I700
sg17
g13
sg18
g13
sg19
S'/usr/share/fonts/truetype/tlwg/Sawasdee-BoldOblique.ttf'
p1121
sg21
g22
sbag7
(g8
g9
NtRp1122
(dp1123
g12
g13
sg14
S'Sawasdee'
p1124
sg16
I700
sg17
g13
sg18
g13
sg19
S'/usr/share/fonts/truetype/tlwg/Sawasdee-Bold.ttf'
p1125
sg21
g22
sbag7
(g8
g9
NtRp1126
(dp1127
g12
g29
sg14
S'Arial'
p1128
sg16
I700
sg17
g13
sg18
g13
sg19
S'/usr/share/fonts/truetype/msttcorefonts/Arial_Bold_Italic.ttf'
p1129
sg21
g22
sbag7
(g8
g9
NtRp1130
(dp1131
g12
g13
sg14
S'Cantarell'
p1132
sg16
I700
sg17
g13
sg18
g13
sg19
S'/usr/share/fonts/opentype/cantarell/Cantarell-Bold.otf'
p1133
sg21
g22
sbag7
(g8
g9
NtRp1134
(dp1135
g12
g13
sg14
S'DejaVu Serif'
p1136
sg16
I400
sg17
g171
sg18
g13
sg19
S'/usr/share/fonts/truetype/ttf-dejavu/DejaVuSerifCondensed.ttf'
p1137
sg21
g22
sbag7
(g8
g9
NtRp1138
(dp1139
g12
g13
sg14
S'Saab'
p1140
sg16
I400
sg17
g13
sg18
g13
sg19
S'/usr/share/fonts/truetype/ttf-punjabi-fonts/Saab.ttf'
p1141
sg21
g22
sbag7
(g8
g9
NtRp1142
(dp1143
g12
g13
sg14
S'KacstOffice'
p1144
sg16
I400
sg17
g13
sg18
g13
sg19
S'/usr/share/fonts/truetype/kacst/KacstOffice.ttf'
p1145
sg21
g22
sbag7
(g8
g9
NtRp1146
(dp1147
g12
g29
sg14
S'GFS Didot'
p1148
sg16
I400
sg17
g13
sg18
g13
sg19
S'/usr/share/fonts/truetype/didot/GFSDidotItalic.otf'
p1149
sg21
g22
sbag7
(g8
g9
NtRp1150
(dp1151
g12
g13
sg14
S'Arial'
p1152
sg16
I400
sg17
g13
sg18
g13
sg19
S'/usr/share/fonts/truetype/msttcorefonts/arial.ttf'
p1153
sg21
g22
sbag7
(g8
g9
NtRp1154
(dp1155
g12
g13
sg14
S'UnBatang'
p1156
sg16
I400
sg17
g13
sg18
g13
sg19
S'/usr/share/fonts/truetype/unfonts-core/UnBatang.ttf'
p1157
sg21
g22
sbag7
(g8
g9
NtRp1158
(dp1159
g12
g175
sg14
S'Sawasdee'
p1160
sg16
I400
sg17
g13
sg18
g13
sg19
S'/usr/share/fonts/truetype/tlwg/Sawasdee-Oblique.ttf'
p1161
sg21
g22
sbag7
(g8
g9
NtRp1162
(dp1163
g12
g13
sg14
S'Impact'
p1164
sg16
I400
sg17
g13
sg18
g13
sg19
S'/usr/share/fonts/truetype/msttcorefonts/impact.ttf'
p1165
sg21
g22
sbag7
(g8
g9
NtRp1166
(dp1167
g12
g13
sg14
S'NanumMyeongjo'
p1168
sg16
I400
sg17
g13
sg18
g13
sg19
S'/usr/share/fonts/truetype/nanum/NanumMyeongjo.ttf'
p1169
sg21
g22
sbag7
(g8
g9
NtRp1170
(dp1171
g12
g13
sg14
S'Khmer OS'
p1172
sg16
I400
sg17
g13
sg18
g13
sg19
S'/usr/share/fonts/truetype/ttf-khmeros-core/KhmerOS.ttf'
p1173
sg21
g22
sbag7
(g8
g9
NtRp1174
(dp1175
g12
g13
sg14
S'GFS Neohellenic'
p1176
sg16
I700
sg17
g13
sg18
g13
sg19
S'/usr/share/fonts/truetype/neohellenic/GFSNeohellenicBold.otf'
p1177
sg21
g22
sbag7
(g8
g9
NtRp1178
(dp1179
g12
g29
sg14
S'Ubuntu Mono'
p1180
sg16
I400
sg17
g13
sg18
g13
sg19
S'/usr/share/fonts/truetype/ubuntu-font-family/UbuntuMono-RI.ttf'
p1181
sg21
g22
sbag7
(g8
g9
NtRp1182
(dp1183
g12
g13
sg14
S'Verdana'
p1184
sg16
I700
sg17
g13
sg18
g13
sg19
S'/usr/share/fonts/truetype/msttcorefonts/Verdana_Bold.ttf'
p1185
sg21
g22
sbag7
(g8
g9
NtRp1186
(dp1187
g12
g13
sg14
S'Cantarell'
p1188
sg16
I400
sg17
g13
sg18
g13
sg19
S'/usr/share/fonts/opentype/cantarell/Cantarell-Regular.otf'
p1189
sg21
g22
sbag7
(g8
g9
NtRp1190
(dp1191
g12
g175
sg14
S'Garuda'
p1192
sg16
I400
sg17
g13
sg18
g13
sg19
S'/usr/share/fonts/truetype/tlwg/Garuda-Oblique.ttf'
p1193
sg21
g22
sbag7
(g8
g9
NtRp1194
(dp1195
g12
g13
sg14
S'GFS BodoniClassic'
p1196
sg16
I400
sg17
g13
sg18
g13
sg19
S'/usr/share/fonts/truetype/bodoni-classic/GFSBodoniClassic.otf'
p1197
sg21
g22
sbag7
(g8
g9
NtRp1198
(dp1199
g12
g13
sg14
S'Loma'
p1200
sg16
I700
sg17
g13
sg18
g13
sg19
S'/usr/share/fonts/truetype/tlwg/Loma-Bold.ttf'
p1201
sg21
g22
sbag7
(g8
g9
NtRp1202
(dp1203
g12
g175
sg14
S'Purisa'
p1204
sg16
I400
sg17
g13
sg18
g13
sg19
S'/usr/share/fonts/truetype/tlwg/Purisa-Oblique.ttf'
p1205
sg21
g22
sbag7
(g8
g9
NtRp1206
(dp1207
g12
g13
sg14
S'Droid Serif'
p1208
sg16
I400
sg17
g13
sg18
g13
sg19
S'/usr/share/fonts/truetype/droid/DroidSerif-Regular.ttf'
p1209
sg21
g22
sbag7
(g8
g9
NtRp1210
(dp1211
g12
g175
sg14
S'Garuda'
p1212
sg16
I700
sg17
g13
sg18
g13
sg19
S'/usr/share/fonts/truetype/tlwg/Garuda-BoldOblique.ttf'
p1213
sg21
g22
sbag7
(g8
g9
NtRp1214
(dp1215
g12
g13
sg14
S'KacstLetter'
p1216
sg16
I400
sg17
g13
sg18
g13
sg19
S'/usr/share/fonts/truetype/kacst/KacstLetter.ttf'
p1217
sg21
g22
sbag7
(g8
g9
NtRp1218
(dp1219
g12
g13
sg14
S'Droid Sans Arabic'
p1220
sg16
I400
sg17
g13
sg18
g13
sg19
S'/usr/share/fonts/truetype/droid/DroidSansArabic.ttf'
p1221
sg21
g22
sbag7
(g8
g9
NtRp1222
(dp1223
g12
g13
sg14
S'KacstPen'
p1224
sg16
I400
sg17
g13
sg18
g13
sg19
S'/usr/share/fonts/truetype/kacst/KacstPen.ttf'
p1225
sg21
g22
sbag7
(g8
g9
NtRp1226
(dp1227
g12
g175
sg14
S'Tlwg Typo'
p1228
sg16
I700
sg17
g13
sg18
g13
sg19
S'/usr/share/fonts/truetype/tlwg/TlwgTypo-BoldOblique.ttf'
p1229
sg21
g22
sbag7
(g8
g9
NtRp1230
(dp1231
g12
g13
sg14
S'msam10'
p1232
sg16
I400
sg17
g13
sg18
g13
sg19
S'/usr/share/fonts/truetype/ttf-lyx/msam10.ttf'
p1233
sg21
g22
sbag7
(g8
g9
NtRp1234
(dp1235
g12
g13
sg14
S'Trebuchet MS'
p1236
sg16
I700
sg17
g13
sg18
g13
sg19
S'/usr/share/fonts/truetype/msttcorefonts/trebucbd.ttf'
p1237
sg21
g22
sbag7
(g8
g9
NtRp1238
(dp1239
g12
g13
sg14
S'GFS Gazis'
p1240
sg16
I400
sg17
g13
sg18
g13
sg19
S'/usr/share/fonts/truetype/gazis/GFSGazis.otf'
p1241
sg21
g22
sbag7
(g8
g9
NtRp1242
(dp1243
g12
g13
sg14
S'Ubuntu'
p1244
sg16
I700
sg17
g13
sg18
g13
sg19
S'/usr/share/fonts/truetype/ubuntu-font-family/Ubuntu-B.ttf'
p1245
sg21
g22
sbag7
(g8
g9
NtRp1246
(dp1247
g12
g13
sg14
S'Untitled1'
p1248
sg16
I400
sg17
g13
sg18
g13
sg19
S'/usr/share/fonts/truetype/freefont/Untitled1.ttf'
p1249
sg21
g22
sbag7
(g8
g9
NtRp1250
(dp1251
g12
g29
sg14
S'Trebuchet MS'
p1252
sg16
I700
sg17
g13
sg18
g13
sg19
S'/usr/share/fonts/truetype/msttcorefonts/Trebuchet_MS_Bold_Italic.ttf'
p1253
sg21
g22
sbag7
(g8
g9
NtRp1254
(dp1255
g12
g13
sg14
S'Comic Sans MS'
p1256
sg16
I400
sg17
g13
sg18
g13
sg19
S'/usr/share/fonts/truetype/msttcorefonts/comic.ttf'
p1257
sg21
g22
sbag7
(g8
g9
NtRp1258
(dp1259
g12
g13
sg14
S'Mukti Narrow'
p1260
sg16
I400
sg17
g13
sg18
g13
sg19
S'/usr/share/fonts/truetype/ttf-indic-fonts-core/MuktiNarrow.ttf'
p1261
sg21
g22
sbag7
(g8
g9
NtRp1262
(dp1263
g12
g29
sg14
S'FreeSerif'
p1264
sg16
I400
sg17
g13
sg18
g13
sg19
S'/usr/share/fonts/truetype/freefont/FreeSerifItalic.ttf'
p1265
sg21
g22
sbag7
(g8
g9
NtRp1266
(dp1267
g12
g29
sg14
S'GFS Neohellenic'
p1268
sg16
I700
sg17
g13
sg18
g13
sg19
S'/usr/share/fonts/truetype/neohellenic/GFSNeohellenicBoldIt.otf'
p1269
sg21
g22
sbag7
(g8
g9
NtRp1270
(dp1271
g12
g13
sg14
S'Ubuntu'
p1272
sg16
I200
sg17
g13
sg18
g13
sg19
S'/usr/share/fonts/truetype/ubuntu-font-family/Ubuntu-L.ttf'
p1273
sg21
g22
sbag7
(g8
g9
NtRp1274
(dp1275
g12
g13
sg14
S'Courier New'
p1276
sg16
I700
sg17
g13
sg18
g13
sg19
S'/usr/share/fonts/truetype/msttcorefonts/courbd.ttf'
p1277
sg21
g22
sbag7
(g8
g9
NtRp1278
(dp1279
g12
g13
sg14
S'mry_KacstQurn'
p1280
sg16
I400
sg17
g13
sg18
g13
sg19
S'/usr/share/fonts/truetype/kacst/mry_KacstQurn.ttf'
p1281
sg21
g22
sbag7
(g8
g9
NtRp1282
(dp1283
g12
g13
sg14
S'KacstDecorative'
p1284
sg16
I400
sg17
g13
sg18
g13
sg19
S'/usr/share/fonts/truetype/kacst/KacstDecorative.ttf'
p1285
sg21
g22
sbag7
(g8
g9
NtRp1286
(dp1287
g12
g175
sg14
S'TlwgTypewriter'
p1288
sg16
I400
sg17
g13
sg18
g13
sg19
S'/usr/share/fonts/truetype/tlwg/TlwgTypewriter-Oblique.ttf'
p1289
sg21
g22
sbag7
(g8
g9
NtRp1290
(dp1291
g12
g29
sg14
S'Liberation Sans Narrow'
p1292
sg16
I400
sg17
g171
sg18
g13
sg19
S'/usr/share/fonts/truetype/liberation/LiberationSansNarrow-Italic.ttf'
p1293
sg21
g22
sbag7
(g8
g9
NtRp1294
(dp1295
g12
g13
sg14
S'Times New Roman'
p1296
sg16
I700
sg17
g13
sg18
g13
sg19
S'/usr/share/fonts/truetype/msttcorefonts/Times_New_Roman_Bold.ttf'
p1297
sg21
g22
sbasS'defaultFamily'
p1298
(dp1299
S'afm'
p1300
S'Helvetica'
p1301
sS'ttf'
p1302
S'Bitstream Vera Sans'
p1303
ssS'ttffiles'
p1304
(lp1305
S'/usr/share/matplotlib/mpl-data/fonts/ttf/cmb10.ttf'
p1306
aS'/usr/share/matplotlib/mpl-data/fonts/ttf/cmex10.ttf'
p1307
aS'/usr/share/matplotlib/mpl-data/fonts/ttf/STIXNonUniIta.ttf'
p1308
aS'/usr/share/matplotlib/mpl-data/fonts/ttf/STIXSizOneSymReg.ttf'
p1309
aS'/usr/share/matplotlib/mpl-data/fonts/ttf/STIXSizThreeSymReg.ttf'
p1310
aS'/usr/share/matplotlib/mpl-data/fonts/ttf/STIXSizTwoSymBol.ttf'
p1311
aS'/usr/share/matplotlib/mpl-data/fonts/ttf/cmtt10.ttf'
p1312
aS'/usr/share/matplotlib/mpl-data/fonts/ttf/STIXGeneral.ttf'
p1313
aS'/usr/share/matplotlib/mpl-data/fonts/ttf/STIXNonUniBolIta.ttf'
p1314
aS'/usr/share/matplotlib/mpl-data/fonts/ttf/STIXSizFiveSymReg.ttf'
p1315
aS'/usr/share/matplotlib/mpl-data/fonts/ttf/STIXSizOneSymBol.ttf'
p1316
aS'/usr/share/matplotlib/mpl-data/fonts/ttf/STIXGeneralBol.ttf'
p1317
aS'/usr/share/matplotlib/mpl-data/fonts/ttf/cmr10.ttf'
p1318
aS'/usr/share/matplotlib/mpl-data/fonts/ttf/STIXSizTwoSymReg.ttf'
p1319
aS'/usr/share/matplotlib/mpl-data/fonts/ttf/STIXNonUni.ttf'
p1320
aS'/usr/share/matplotlib/mpl-data/fonts/ttf/cmsy10.ttf'
p1321
aS'/usr/share/matplotlib/mpl-data/fonts/ttf/STIXSizThreeSymBol.ttf'
p1322
aS'/usr/share/matplotlib/mpl-data/fonts/ttf/cmss10.ttf'
p1323
aS'/usr/share/matplotlib/mpl-data/fonts/ttf/STIXSizFourSymBol.ttf'
p1324
aS'/usr/share/matplotlib/mpl-data/fonts/ttf/STIXGeneralItalic.ttf'
p1325
aS'/usr/share/matplotlib/mpl-data/fonts/ttf/cmmi10.ttf'
p1326
aS'/usr/share/matplotlib/mpl-data/fonts/ttf/STIXNonUniBol.ttf'
p1327
aS'/usr/share/matplotlib/mpl-data/fonts/ttf/STIXGeneralBolIta.ttf'
p1328
aS'/usr/share/matplotlib/mpl-data/fonts/ttf/STIXSizFourSymReg.ttf'
p1329
aS'/usr/share/fonts/truetype/msttcorefonts/webdings.ttf'
p1330
aS'/usr/share/fonts/truetype/kacst/KacstTitle.ttf'
p1331
aS'/usr/share/fonts/truetype/ttf-indic-fonts-core/Malige-b.ttf'
p1332
aS'/usr/share/fonts/truetype/msttcorefonts/verdanab.ttf'
p1333
aS'/usr/share/fonts/truetype/tlwg/Umpush.ttf'
p1334
aS'/usr/share/fonts/truetype/horai-umefont/ume-tgo5.ttf'
p1335
aS'/usr/share/fonts/truetype/tlwg/Garuda-Bold.ttf'
p1336
aS'/usr/share/fonts/truetype/msttcorefonts/Times_New_Roman.ttf'
p1337
aS'/usr/share/fonts/truetype/horai-umefont/ume-tms3.ttf'
p1338
aS'/usr/share/fonts/truetype/msttcorefonts/verdanai.ttf'
p1339
aS'/usr/share/fonts/truetype/droid/DroidSansJapanese.ttf'
p1340
aS'/usr/share/fonts/truetype/freefont/FreeSerif.ttf'
p1341
aS'/usr/share/fonts/truetype/ttf-lyx/rsfs10.ttf'
p1342
aS'/usr/share/fonts/truetype/ttf-dejavu/DejaVuSansCondensed.ttf'
p1343
aS'/usr/share/fonts/truetype/tlwg/Loma-Oblique.ttf'
p1344
aS'/usr/share/fonts/truetype/tlwg/Norasi-Oblique.ttf'
p1345
aS'/usr/share/fonts/truetype/tlwg/Kinnari-BoldOblique.ttf'
p1346
aS'/usr/share/fonts/truetype/msttcorefonts/Arial_Bold.ttf'
p1347
aS'/usr/share/fonts/truetype/kacst/KacstPoster.ttf'
p1348
aS'/usr/share/fonts/truetype/ttf-dejavu/DejaVuSansMono.ttf'
p1349
aS'/usr/share/fonts/truetype/ttf-punjabi-fonts/lohit_pa.ttf'
p1350
aS'/usr/share/fonts/truetype/droid/DroidSerif-Bold.ttf'
p1351
aS'/usr/share/fonts/truetype/ttf-indic-fonts-core/Meera_04.ttf'
p1352
aS'/usr/share/fonts/truetype/fonts-japanese-gothic.ttf'
p1353
aS'/usr/share/fonts/truetype/msttcorefonts/Arial_Italic.ttf'
p1354
aS'/usr/share/fonts/truetype/unfonts-core/UnDotum.ttf'
p1355
aS'/usr/share/fonts/truetype/msttcorefonts/Georgia_Bold.ttf'
p1356
aS'/usr/share/fonts/truetype/tlwg/Umpush-LightOblique.ttf'
p1357
aS'/usr/share/fonts/truetype/freefont/FreeSerifBold.ttf'
p1358
aS'/usr/share/fonts/truetype/tlwg/Waree-Oblique.ttf'
p1359
aS'/usr/share/fonts/truetype/tlwg/TlwgTypo.ttf'
p1360
aS'/usr/share/fonts/truetype/ttf-dejavu/DejaVuSerif-Bold.ttf'
p1361
aS'/usr/share/fonts/truetype/solomos/GFSSolomos.otf'
p1362
aS'/usr/share/fonts/truetype/didot/GFSDidotBoldItalic.otf'
p1363
aS'/usr/share/fonts/truetype/msttcorefonts/georgiab.ttf'
p1364
aS'/usr/share/fonts/truetype/ttf-dejavu/DejaVuSerif.ttf'
p1365
aS'/usr/share/fonts/truetype/liberation/LiberationSansNarrow-Bold.ttf'
p1366
aS'/usr/share/fonts/truetype/freefont/FreeSansOblique.ttf'
p1367
aS'/usr/share/fonts/truetype/msttcorefonts/Comic_Sans_MS_Bold.ttf'
p1368
aS'/usr/share/fonts/truetype/liberation/LiberationMono-Regular.ttf'
p1369
aS'/usr/share/fonts/truetype/liberation/LiberationSans-Bold.ttf'
p1370
aS'/usr/share/fonts/truetype/kacst/KacstTitleL.ttf'
p1371
aS'/usr/share/fonts/truetype/ttf-indic-fonts-core/lohit_hi.ttf'
p1372
aS'/usr/share/fonts/truetype/msttcorefonts/Courier_New_Bold.ttf'
p1373
aS'/usr/share/fonts/truetype/msttcorefonts/Georgia_Bold_Italic.ttf'
p1374
aS'/usr/share/fonts/truetype/ttf-dejavu/DejaVuSans-Oblique.ttf'
p1375
aS'/usr/share/fonts/truetype/horai-umefont/ume-pms3.ttf'
p1376
aS'/usr/share/fonts/truetype/horai-umefont/ume-pgs4.ttf'
p1377
aS'/usr/share/fonts/truetype/porson/GFSPorson.otf'
p1378
aS'/usr/share/fonts/truetype/ubuntu-font-family/Ubuntu-R.ttf'
p1379
aS'/usr/share/fonts/truetype/msttcorefonts/Times_New_Roman_Bold_Italic.ttf'
p1380
aS'/usr/share/fonts/truetype/ttf-lyx/eufm10.ttf'
p1381
aS'/usr/share/fonts/truetype/horai-umefont/ume-tmo3.ttf'
p1382
aS'/usr/share/fonts/truetype/ttf-dejavu/DejaVuSans-BoldOblique.ttf'
p1383
aS'/usr/share/fonts/truetype/tlwg/TlwgTypist.ttf'
p1384
aS'/usr/share/fonts/truetype/nanum/NanumGothic.ttf'
p1385
aS'/usr/share/fonts/truetype/ttf-lyx/wasy10.ttf'
p1386
aS'/usr/share/fonts/truetype/horai-umefont/ume-pgo4.ttf'
p1387
aS'/usr/share/fonts/truetype/msttcorefonts/Impact.ttf'
p1388
aS'/usr/share/fonts/truetype/ttf-dejavu/DejaVuSansCondensed-BoldOblique.ttf'
p1389
aS'/usr/share/fonts/truetype/msttcorefonts/Georgia.ttf'
p1390
aS'/usr/share/fonts/truetype/artemisia/GFSArtemisiaBold.otf'
p1391
aS'/usr/share/fonts/truetype/ttf-lyx/msbm10.ttf'
p1392
aS'/usr/share/fonts/truetype/tlwg/TlwgMono-Bold.ttf'
p1393
aS'/usr/share/fonts/truetype/liberation/LiberationMono-Italic.ttf'
p1394
aS'/usr/share/fonts/truetype/liberation/LiberationSerif-BoldItalic.ttf'
p1395
aS'/usr/share/fonts/truetype/msttcorefonts/andalemo.ttf'
p1396
aS'/usr/share/fonts/truetype/ttf-dejavu/DejaVuSans.ttf'
p1397
aS'/usr/share/fonts/truetype/msttcorefonts/arialbi.ttf'
p1398
aS'/usr/share/fonts/truetype/liberation/LiberationSerif-Bold.ttf'
p1399
aS'/usr/share/fonts/truetype/liberation/LiberationSans-Italic.ttf'
p1400
aS'/usr/share/fonts/truetype/msttcorefonts/Verdana.ttf'
p1401
aS'/usr/share/fonts/truetype/nanum/NanumMyeongjoBold.ttf'
p1402
aS'/usr/share/fonts/truetype/tlwg/Waree-Bold.ttf'
p1403
aS'/usr/share/fonts/truetype/unfonts-core/UnGraphic.ttf'
p1404
aS'/usr/share/fonts/truetype/msttcorefonts/Courier_New_Italic.ttf'
p1405
aS'/usr/share/fonts/truetype/horai-umefont/ume-pgc5.ttf'
p1406
aS'/usr/share/fonts/truetype/lao/Phetsarath_OT.ttf'
p1407
aS'/usr/share/fonts/truetype/ttf-dejavu/DejaVuSansCondensed-Oblique.ttf'
p1408
aS'/usr/share/fonts/truetype/msttcorefonts/cour.ttf'
p1409
aS'/usr/share/fonts/truetype/ttf-indic-fonts-core/utkal.ttf'
p1410
aS'/usr/share/fonts/truetype/kacst/KacstQurn.ttf'
p1411
aS'/usr/share/fonts/truetype/kacst/KacstDigital.ttf'
p1412
aS'/usr/share/fonts/truetype/takao-gothic/TakaoPGothic.ttf'
p1413
aS'/usr/share/fonts/truetype/liberation/LiberationSans-Regular.ttf'
p1414
aS'/usr/share/fonts/truetype/droid/DroidSans.ttf'
p1415
aS'/usr/share/fonts/truetype/ttf-dejavu/DejaVuSerif-BoldItalic.ttf'
p1416
aS'/usr/share/fonts/truetype/kacst/KacstScreen.ttf'
p1417
aS'/usr/share/fonts/truetype/msttcorefonts/Trebuchet_MS.ttf'
p1418
aS'/usr/share/fonts/truetype/neohellenic/GFSNeohellenicIt.otf'
p1419
aS'/usr/share/fonts/truetype/unfonts-core/UnDotumBold.ttf'
p1420
aS'/usr/share/fonts/truetype/horai-umefont/ume-ugo5.ttf'
p1421
aS'/usr/share/fonts/truetype/ttf-indic-fonts-core/Kedage-b.ttf'
p1422
aS'/usr/share/fonts/truetype/ttf-dejavu/DejaVuSerifCondensed-Bold.ttf'
p1423
aS'/usr/share/fonts/truetype/ubuntu-font-family/UbuntuMono-R.ttf'
p1424
aS'/usr/share/fonts/truetype/olga/GFSOlga.otf'
p1425
aS'/usr/share/fonts/truetype/msttcorefonts/Trebuchet_MS_Italic.ttf'
p1426
aS'/usr/share/fonts/truetype/msttcorefonts/Courier_New.ttf'
p1427
aS'/usr/share/fonts/truetype/msttcorefonts/comicbd.ttf'
p1428
aS'/usr/share/fonts/truetype/tlwg/Norasi-Bold.ttf'
p1429
aS'/usr/share/fonts/truetype/tlwg/Norasi-BoldItalic.ttf'
p1430
aS'/usr/share/fonts/truetype/msttcorefonts/Arial.ttf'
p1431
aS'/usr/share/fonts/truetype/unfonts-core/UnPilgiBold.ttf'
p1432
aS'/usr/share/fonts/truetype/tlwg/Umpush-Bold.ttf'
p1433
aS'/usr/share/fonts/truetype/msttcorefonts/courbi.ttf'
p1434
aS'/usr/share/fonts/truetype/msttcorefonts/times.ttf'
p1435
aS'/usr/share/fonts/truetype/ttf-dejavu/DejaVuSansCondensed-Bold.ttf'
p1436
aS'/usr/share/fonts/truetype/msttcorefonts/Verdana_Italic.ttf'
p1437
aS'/usr/share/fonts/truetype/unfonts-core/UnGraphicBold.ttf'
p1438
aS'/usr/share/fonts/truetype/freefont/FreeMono.ttf'
p1439
aS'/usr/share/fonts/truetype/ttf-indic-fonts-core/Malige-n.ttf'
p1440
aS'/usr/share/fonts/truetype/kacst/KacstNaskh.ttf'
p1441
aS'/usr/share/fonts/truetype/ttf-indic-fonts-core/Rekha.ttf'
p1442
aS'/usr/share/fonts/truetype/liberation/LiberationSansNarrow-BoldItalic.ttf'
p1443
aS'/usr/share/fonts/truetype/tlwg/Norasi-BoldOblique.ttf'
p1444
aS'/usr/share/fonts/truetype/msttcorefonts/trebuc.ttf'
p1445
aS'/usr/share/fonts/truetype/ttf-dejavu/DejaVuSerifCondensed-BoldItalic.ttf'
p1446
aS'/usr/share/fonts/truetype/tlwg/Sawasdee.ttf'
p1447
aS'/usr/share/fonts/truetype/kacst-one/KacstOne.ttf'
p1448
aS'/usr/share/fonts/truetype/ttf-indic-fonts-core/lohit_gu.ttf'
p1449
aS'/usr/share/fonts/truetype/unfonts-core/UnDinaruBold.ttf'
p1450
aS'/usr/share/fonts/truetype/freefont/FreeSansBold.ttf'
p1451
aS'/usr/share/fonts/truetype/liberation/LiberationMono-Bold.ttf'
p1452
aS'/usr/share/fonts/truetype/tlwg/TlwgTypist-BoldOblique.ttf'
p1453
aS'/usr/share/fonts/truetype/ttf-indic-fonts-core/lohit_bn.ttf'
p1454
aS'/usr/share/fonts/truetype/tlwg/Garuda.ttf'
p1455
aS'/usr/share/fonts/truetype/didot/GFSDidot.otf'
p1456
aS'/usr/share/fonts/truetype/tlwg/TlwgMono-Oblique.ttf'
p1457
aS'/usr/share/fonts/truetype/baskerville/GFSBaskerville.otf'
p1458
aS'/usr/share/fonts/truetype/liberation/LiberationSerif-Regular.ttf'
p1459
aS'/usr/share/fonts/truetype/ttf-dejavu/DejaVuSansMono-BoldOblique.ttf'
p1460
aS'/usr/share/fonts/truetype/tlwg/Purisa-Bold.ttf'
p1461
aS'/usr/share/fonts/truetype/theokritos/GFSTheokritos.otf'
p1462
aS'/usr/share/fonts/truetype/freefont/FreeMonoBold.ttf'
p1463
aS'/usr/share/fonts/truetype/ttf-dejavu/DejaVuSans-Bold.ttf'
p1464
aS'/usr/share/fonts/truetype/tlwg/TlwgTypist-Bold.ttf'
p1465
aS'/usr/share/fonts/truetype/droid/DroidSansHebrew.ttf'
p1466
aS'/usr/share/fonts/truetype/ttf-dejavu/DejaVuSans-ExtraLight.ttf'
p1467
aS'/usr/share/fonts/truetype/msttcorefonts/georgia.ttf'
p1468
aS'/usr/share/fonts/truetype/kacst/KacstBook.ttf'
p1469
aS'/usr/share/fonts/truetype/artemisia/GFSArtemisia.otf'
p1470
aS'/usr/share/fonts/truetype/kacst/KacstFarsi.ttf'
p1471
aS'/usr/share/fonts/truetype/msttcorefonts/verdanaz.ttf'
p1472
aS'/usr/share/fonts/truetype/tlwg/Purisa.ttf'
p1473
aS'/usr/share/fonts/truetype/droid/DroidSansFallback.ttf'
p1474
aS'/usr/share/fonts/truetype/msttcorefonts/georgiai.ttf'
p1475
aS'/usr/share/fonts/truetype/msttcorefonts/Andale_Mono.ttf'
p1476
aS'/usr/share/fonts/truetype/liberation/LiberationSans-BoldItalic.ttf'
p1477
aS'/usr/share/fonts/truetype/msttcorefonts/Georgia_Italic.ttf'
p1478
aS'/usr/share/fonts/truetype/ubuntu-font-family/Ubuntu-LI.ttf'
p1479
aS'/usr/share/fonts/truetype/ttf-lyx/cmmi10.ttf'
p1480
aS'/usr/share/fonts/truetype/droid/DroidSansMono.ttf'
p1481
aS'/usr/share/fonts/truetype/ttf-indic-fonts-core/Pothana2000.ttf'
p1482
aS'/usr/share/fonts/truetype/tlwg/Umpush-Oblique.ttf'
p1483
aS'/usr/share/fonts/truetype/nanum/NanumGothicBold.ttf'
p1484
aS'/usr/share/fonts/truetype/liberation/LiberationMono-BoldItalic.ttf'
p1485
aS'/usr/share/fonts/truetype/tlwg/Purisa-BoldOblique.ttf'
p1486
aS'/usr/share/fonts/truetype/tlwg/Loma-BoldOblique.ttf'
p1487
aS'/usr/share/fonts/truetype/msttcorefonts/couri.ttf'
p1488
aS'/usr/share/fonts/truetype/artemisia/GFSArtemisiaBoldIt.otf'
p1489
aS'/usr/share/fonts/truetype/tlwg/TlwgTypewriter.ttf'
p1490
aS'/usr/share/fonts/truetype/tlwg/Kinnari-BoldItalic.ttf'
p1491
aS'/usr/share/fonts/truetype/horai-umefont/ume-ugo4.ttf'
p1492
aS'/usr/share/fonts/truetype/ubuntu-font-family/UbuntuMono-B.ttf'
p1493
aS'/usr/share/fonts/truetype/ttf-lyx/esint10.ttf'
p1494
aS'/usr/share/fonts/truetype/tlwg/Loma.ttf'
p1495
aS'/usr/share/fonts/truetype/droid/DroidSerif-BoldItalic.ttf'
p1496
aS'/usr/share/fonts/truetype/horai-umefont/ume-pgs5.ttf'
p1497
aS'/usr/share/fonts/truetype/unfonts-core/UnGungseo.ttf'
p1498
aS'/usr/share/fonts/truetype/msttcorefonts/ariblk.ttf'
p1499
aS'/usr/share/fonts/truetype/openoffice/opens___.ttf'
p1500
aS'/usr/share/fonts/truetype/msttcorefonts/Verdana_Bold_Italic.ttf'
p1501
aS'/usr/share/fonts/truetype/gentium/GenAI102.ttf'
p1502
aS'/usr/share/fonts/truetype/ttf-indic-fonts-core/gargi.ttf'
p1503
aS'/usr/share/fonts/truetype/tlwg/Norasi-Italic.ttf'
p1504
aS'/usr/share/fonts/truetype/ubuntu-font-family/Ubuntu-BI.ttf'
p1505
aS'/usr/share/fonts/truetype/artemisia/GFSArtemisiaIt.otf'
p1506
aS'/usr/share/fonts/truetype/ttf-khmeros-core/KhmerOSsys.ttf'
p1507
aS'/usr/share/fonts/truetype/msttcorefonts/Comic_Sans_MS.ttf'
p1508
aS'/usr/share/fonts/truetype/tlwg/TlwgTypist-Oblique.ttf'
p1509
aS'/usr/share/fonts/truetype/tlwg/Norasi.ttf'
p1510
aS'/usr/share/fonts/truetype/ttf-dejavu/DejaVuSerifCondensed-Italic.ttf'
p1511
aS'/usr/share/fonts/truetype/msttcorefonts/Arial_Black.ttf'
p1512
aS'/usr/share/fonts/truetype/didot/GFSDidotBold.otf'
p1513
aS'/usr/share/fonts/truetype/msttcorefonts/Webdings.ttf'
p1514
aS'/usr/share/fonts/truetype/ttf-indic-fonts-core/MuktiNarrowBold.ttf'
p1515
aS'/usr/share/fonts/truetype/gentium/GenAR102.ttf'
p1516
aS'/usr/share/fonts/truetype/kacst-one/KacstOne-Bold.ttf'
p1517
aS'/usr/share/fonts/truetype/tlwg/Umpush-BoldOblique.ttf'
p1518
aS'/usr/share/fonts/truetype/unfonts-core/UnPilgi.ttf'
p1519
aS'/usr/share/fonts/truetype/freefont/FreeSansBoldOblique.ttf'
p1520
aS'/usr/share/fonts/truetype/horai-umefont/ume-pmo3.ttf'
p1521
aS'/usr/share/fonts/truetype/droid/DroidSerif-Italic.ttf'
p1522
aS'/usr/share/fonts/truetype/tlwg/TlwgTypo-Bold.ttf'
p1523
aS'/usr/share/fonts/truetype/msttcorefonts/verdana.ttf'
p1524
aS'/usr/share/fonts/truetype/ubuntu-font-family/Ubuntu-RI.ttf'
p1525
aS'/usr/share/fonts/truetype/freefont/FreeMonoBoldOblique.ttf'
p1526
aS'/usr/share/fonts/truetype/liberation/LiberationSerif-Italic.ttf'
p1527
aS'/usr/share/fonts/truetype/tlwg/TlwgTypewriter-Bold.ttf'
p1528
aS'/usr/share/fonts/truetype/tlwg/Waree-BoldOblique.ttf'
p1529
aS'/usr/share/fonts/truetype/freefont/FreeSans.ttf'
p1530
aS'/usr/share/fonts/truetype/ttf-lyx/cmr10.ttf'
p1531
aS'/usr/share/fonts/truetype/unfonts-core/UnDinaruLight.ttf'
p1532
aS'/usr/share/fonts/truetype/ttf-dejavu/DejaVuSansMono-Bold.ttf'
p1533
aS'/usr/share/fonts/truetype/msttcorefonts/ariali.ttf'
p1534
aS'/usr/share/fonts/truetype/gentium/GenI102.ttf'
p1535
aS'/usr/share/fonts/truetype/freefont/FreeSerifBoldItalic.ttf'
p1536
aS'/usr/share/fonts/truetype/msttcorefonts/trebucbi.ttf'
p1537
aS'/usr/share/fonts/truetype/gentium/GenR102.ttf'
p1538
aS'/usr/share/fonts/truetype/unfonts-core/UnDinaru.ttf'
p1539
aS'/usr/share/fonts/truetype/kacst/KacstArt.ttf'
p1540
aS'/usr/share/fonts/truetype/tlwg/Waree.ttf'
p1541
aS'/usr/share/fonts/truetype/ttf-indic-fonts-core/Vemana.ttf'
p1542
aS'/usr/share/fonts/truetype/horai-umefont/ume-pgo5.ttf'
p1543
aS'/usr/share/fonts/truetype/tlwg/Umpush-Light.ttf'
p1544
aS'/usr/share/fonts/truetype/msttcorefonts/timesi.ttf'
p1545
aS'/usr/share/fonts/truetype/msttcorefonts/Times_New_Roman_Italic.ttf'
p1546
aS'/usr/share/fonts/truetype/ttf-indic-fonts-core/Kedage-n.ttf'
p1547
aS'/usr/share/fonts/truetype/unfonts-core/UnBatangBold.ttf'
p1548
aS'/usr/share/fonts/truetype/ttf-indic-fonts-core/lohit_ta.ttf'
p1549
aS'/usr/share/fonts/truetype/tlwg/TlwgTypo-Oblique.ttf'
p1550
aS'/usr/share/fonts/truetype/ubuntu-font-family/Ubuntu-C.ttf'
p1551
aS'/usr/share/fonts/truetype/ttf-lyx/cmsy10.ttf'
p1552
aS'/usr/share/fonts/truetype/tlwg/Kinnari.ttf'
p1553
aS'/usr/share/fonts/truetype/msttcorefonts/georgiaz.ttf'
p1554
aS'/usr/share/fonts/truetype/msttcorefonts/Courier_New_Bold_Italic.ttf'
p1555
aS'/usr/share/fonts/truetype/neohellenic/GFSNeohellenic.otf'
p1556
aS'/usr/share/fonts/truetype/ubuntu-font-family/UbuntuMono-BI.ttf'
p1557
aS'/usr/share/fonts/truetype/msttcorefonts/arialbd.ttf'
p1558
aS'/usr/share/fonts/truetype/msttcorefonts/timesbd.ttf'
p1559
aS'/usr/share/fonts/truetype/ttf-indic-fonts-core/Rachana_04.ttf'
p1560
aS'/usr/share/fonts/truetype/msttcorefonts/Trebuchet_MS_Bold.ttf'
p1561
aS'/usr/share/fonts/truetype/horai-umefont/ume-tgs5.ttf'
p1562
aS'/usr/share/fonts/truetype/tlwg/TlwgMono-BoldOblique.ttf'
p1563
aS'/usr/share/fonts/truetype/ttf-dejavu/DejaVuSerif-Italic.ttf'
p1564
aS'/usr/share/fonts/truetype/droid/DroidSansThai.ttf'
p1565
aS'/usr/share/fonts/truetype/tlwg/Kinnari-Bold.ttf'
p1566
aS'/usr/share/fonts/truetype/freefont/FreeMonoOblique.ttf'
p1567
aS'/usr/share/fonts/truetype/tlwg/TlwgMono.ttf'
p1568
aS'/usr/share/fonts/truetype/tlwg/TlwgTypewriter-BoldOblique.ttf'
p1569
aS'/usr/share/fonts/truetype/droid/DroidSans-Bold.ttf'
p1570
aS'/usr/share/fonts/truetype/tlwg/Kinnari-Oblique.ttf'
p1571
aS'/usr/share/fonts/truetype/horai-umefont/ume-tgo4.ttf'
p1572
aS'/usr/share/fonts/truetype/ttf-dejavu/DejaVuSansMono-Oblique.ttf'
p1573
aS'/usr/share/fonts/truetype/liberation/LiberationSansNarrow-Regular.ttf'
p1574
aS'/usr/share/fonts/truetype/msttcorefonts/trebucit.ttf'
p1575
aS'/usr/share/fonts/truetype/horai-umefont/ume-tgc5.ttf'
p1576
aS'/usr/share/fonts/truetype/horai-umefont/ume-tgs4.ttf'
p1577
aS'/usr/share/fonts/truetype/msttcorefonts/timesbi.ttf'
p1578
aS'/usr/share/fonts/truetype/horai-umefont/ume-tgc4.ttf'
p1579
aS'/usr/share/fonts/truetype/didot-classic/GFSDidotClassic.otf'
p1580
aS'/usr/share/fonts/truetype/horai-umefont/ume-pgc4.ttf'
p1581
aS'/usr/share/fonts/truetype/tlwg/Kinnari-Italic.ttf'
p1582
aS'/usr/share/fonts/truetype/tlwg/Sawasdee-BoldOblique.ttf'
p1583
aS'/usr/share/fonts/truetype/tlwg/Sawasdee-Bold.ttf'
p1584
aS'/usr/share/fonts/truetype/msttcorefonts/Arial_Bold_Italic.ttf'
p1585
aS'/usr/share/fonts/opentype/cantarell/Cantarell-Bold.otf'
p1586
aS'/usr/share/fonts/truetype/ttf-dejavu/DejaVuSerifCondensed.ttf'
p1587
aS'/usr/share/fonts/truetype/ttf-punjabi-fonts/Saab.ttf'
p1588
aS'/usr/share/fonts/truetype/kacst/KacstOffice.ttf'
p1589
aS'/usr/share/fonts/truetype/didot/GFSDidotItalic.otf'
p1590
aS'/usr/share/fonts/truetype/msttcorefonts/arial.ttf'
p1591
aS'/usr/share/fonts/truetype/unfonts-core/UnBatang.ttf'
p1592
aS'/usr/share/fonts/truetype/tlwg/Sawasdee-Oblique.ttf'
p1593
aS'/usr/share/fonts/truetype/msttcorefonts/impact.ttf'
p1594
aS'/usr/share/fonts/truetype/nanum/NanumMyeongjo.ttf'
p1595
aS'/usr/share/fonts/truetype/ttf-khmeros-core/KhmerOS.ttf'
p1596
aS'/usr/share/fonts/truetype/neohellenic/GFSNeohellenicBold.otf'
p1597
aS'/usr/share/fonts/truetype/ubuntu-font-family/UbuntuMono-RI.ttf'
p1598
aS'/usr/share/fonts/truetype/msttcorefonts/Verdana_Bold.ttf'
p1599
aS'/usr/share/fonts/opentype/cantarell/Cantarell-Regular.otf'
p1600
aS'/usr/share/fonts/truetype/tlwg/Garuda-Oblique.ttf'
p1601
aS'/usr/share/fonts/truetype/bodoni-classic/GFSBodoniClassic.otf'
p1602
aS'/usr/share/fonts/truetype/tlwg/Loma-Bold.ttf'
p1603
aS'/usr/share/fonts/truetype/tlwg/Purisa-Oblique.ttf'
p1604
aS'/usr/share/fonts/truetype/droid/DroidSerif-Regular.ttf'
p1605
aS'/usr/share/fonts/truetype/tlwg/Garuda-BoldOblique.ttf'
p1606
aS'/usr/share/fonts/truetype/kacst/KacstLetter.ttf'
p1607
aS'/usr/share/fonts/truetype/droid/DroidSansArabic.ttf'
p1608
aS'/usr/share/fonts/truetype/kacst/KacstPen.ttf'
p1609
aS'/usr/share/fonts/truetype/tlwg/TlwgTypo-BoldOblique.ttf'
p1610
aS'/usr/share/fonts/truetype/ttf-lyx/msam10.ttf'
p1611
aS'/usr/share/fonts/truetype/msttcorefonts/trebucbd.ttf'
p1612
aS'/usr/share/fonts/truetype/gazis/GFSGazis.otf'
p1613
aS'/usr/share/fonts/truetype/ubuntu-font-family/Ubuntu-B.ttf'
p1614
aS'/usr/share/fonts/truetype/freefont/Untitled1.ttf'
p1615
aS'/usr/share/fonts/truetype/msttcorefonts/Trebuchet_MS_Bold_Italic.ttf'
p1616
aS'/usr/share/fonts/truetype/msttcorefonts/comic.ttf'
p1617
aS'/usr/share/fonts/truetype/ttf-indic-fonts-core/MuktiNarrow.ttf'
p1618
aS'/usr/share/fonts/truetype/freefont/FreeSerifItalic.ttf'
p1619
aS'/usr/share/fonts/truetype/neohellenic/GFSNeohellenicBoldIt.otf'
p1620
aS'/usr/share/fonts/truetype/ubuntu-font-family/Ubuntu-L.ttf'
p1621
aS'/usr/share/fonts/truetype/msttcorefonts/courbd.ttf'
p1622
aS'/usr/share/fonts/truetype/kacst/mry_KacstQurn.ttf'
p1623
aS'/usr/share/fonts/truetype/kacst/KacstDecorative.ttf'
p1624
aS'/usr/share/fonts/truetype/tlwg/TlwgTypewriter-Oblique.ttf'
p1625
aS'/usr/share/fonts/truetype/liberation/LiberationSansNarrow-Italic.ttf'
p1626
aS'/usr/share/fonts/truetype/msttcorefonts/Times_New_Roman_Bold.ttf'
p1627
aS'/usr/share/fonts/truetype/ttf-lyx/cmex10.ttf'
p1628
asS'_FontManager__default_weight'
p1629
g13
sS'_version'
p1630
I7
sS'ttf_lookup_cache'
p1631
(dp1632
sS'default_size'
p1633
NsS'defaultFont'
p1634
(dp1635
g1300
Nsg1302
g1306
ssS'afmfiles'
p1636
(lp1637
S'/usr/share/matplotlib/mpl-data/fonts/afm/pzcmi8a.afm'
p1638
aS'/usr/share/matplotlib/mpl-data/fonts/pdfcorefonts/Helvetica.afm'
p1639
aS'/usr/share/matplotlib/mpl-data/fonts/afm/phvl8a.afm'
p1640
aS'/usr/share/matplotlib/mpl-data/fonts/afm/putbi8a.afm'
p1641
aS'/usr/share/matplotlib/mpl-data/fonts/pdfcorefonts/Helvetica-BoldOblique.afm'
p1642
aS'/usr/share/matplotlib/mpl-data/fonts/afm/phvro8an.afm'
p1643
aS'/usr/share/matplotlib/mpl-data/fonts/afm/pbkd8a.afm'
p1644
aS'/usr/share/matplotlib/mpl-data/fonts/afm/pcrbo8a.afm'
p1645
aS'/usr/share/matplotlib/mpl-data/fonts/pdfcorefonts/Helvetica-Bold.afm'
p1646
aS'/usr/share/matplotlib/mpl-data/fonts/pdfcorefonts/Times-BoldItalic.afm'
p1647
aS'/usr/share/matplotlib/mpl-data/fonts/afm/putr8a.afm'
p1648
aS'/usr/share/matplotlib/mpl-data/fonts/afm/pagdo8a.afm'
p1649
aS'/usr/share/matplotlib/mpl-data/fonts/afm/pcrr8a.afm'
p1650
aS'/usr/share/matplotlib/mpl-data/fonts/afm/pncri8a.afm'
p1651
aS'/usr/share/matplotlib/mpl-data/fonts/afm/pncb8a.afm'
p1652
aS'/usr/share/matplotlib/mpl-data/fonts/pdfcorefonts/Courier-Bold.afm'
p1653
aS'/usr/share/matplotlib/mpl-data/fonts/afm/pcrro8a.afm'
p1654
aS'/usr/share/matplotlib/mpl-data/fonts/afm/phvr8a.afm'
p1655
aS'/usr/share/matplotlib/mpl-data/fonts/afm/cmtt10.afm'
p1656
aS'/usr/share/matplotlib/mpl-data/fonts/pdfcorefonts/Symbol.afm'
p1657
aS'/usr/share/matplotlib/mpl-data/fonts/afm/phvr8an.afm'
p1658
aS'/usr/share/matplotlib/mpl-data/fonts/afm/phvro8a.afm'
p1659
aS'/usr/share/matplotlib/mpl-data/fonts/afm/ptmr8a.afm'
p1660
aS'/usr/share/matplotlib/mpl-data/fonts/pdfcorefonts/Helvetica-Oblique.afm'
p1661
aS'/usr/share/matplotlib/mpl-data/fonts/afm/pplbi8a.afm'
p1662
aS'/usr/share/matplotlib/mpl-data/fonts/afm/cmsy10.afm'
p1663
aS'/usr/share/matplotlib/mpl-data/fonts/afm/pagk8a.afm'
p1664
aS'/usr/share/matplotlib/mpl-data/fonts/pdfcorefonts/Courier-BoldOblique.afm'
p1665
aS'/usr/share/matplotlib/mpl-data/fonts/afm/putb8a.afm'
p1666
aS'/usr/share/matplotlib/mpl-data/fonts/afm/cmmi10.afm'
p1667
aS'/usr/share/matplotlib/mpl-data/fonts/afm/pagko8a.afm'
p1668
aS'/usr/share/matplotlib/mpl-data/fonts/afm/phvbo8an.afm'
p1669
aS'/usr/share/matplotlib/mpl-data/fonts/afm/phvbo8a.afm'
p1670
aS'/usr/share/matplotlib/mpl-data/fonts/afm/cmr10.afm'
p1671
aS'/usr/share/matplotlib/mpl-data/fonts/pdfcorefonts/Times-Bold.afm'
p1672
aS'/usr/share/matplotlib/mpl-data/fonts/afm/ptmb8a.afm'
p1673
aS'/usr/share/matplotlib/mpl-data/fonts/afm/phvlo8a.afm'
p1674
aS'/usr/share/matplotlib/mpl-data/fonts/afm/phvb8a.afm'
p1675
aS'/usr/share/matplotlib/mpl-data/fonts/afm/pplb8a.afm'
p1676
aS'/usr/share/matplotlib/mpl-data/fonts/afm/pzdr.afm'
p1677
aS'/usr/share/matplotlib/mpl-data/fonts/afm/ptmri8a.afm'
p1678
aS'/usr/share/matplotlib/mpl-data/fonts/afm/pplr8a.afm'
p1679
aS'/usr/share/matplotlib/mpl-data/fonts/afm/pbkl8a.afm'
p1680
aS'/usr/share/matplotlib/mpl-data/fonts/afm/pncbi8a.afm'
p1681
aS'/usr/share/matplotlib/mpl-data/fonts/pdfcorefonts/ZapfDingbats.afm'
p1682
aS'/usr/share/matplotlib/mpl-data/fonts/afm/psyr.afm'
p1683
aS'/usr/share/matplotlib/mpl-data/fonts/afm/putri8a.afm'
p1684
aS'/usr/share/matplotlib/mpl-data/fonts/afm/pplri8a.afm'
p1685
aS'/usr/share/matplotlib/mpl-data/fonts/afm/ptmbi8a.afm'
p1686
aS'/usr/share/matplotlib/mpl-data/fonts/afm/pbkli8a.afm'
p1687
aS'/usr/share/matplotlib/mpl-data/fonts/pdfcorefonts/Courier-Oblique.afm'
p1688
aS'/usr/share/matplotlib/mpl-data/fonts/afm/pcrb8a.afm'
p1689
aS'/usr/share/matplotlib/mpl-data/fonts/afm/pagd8a.afm'
p1690
aS'/usr/share/matplotlib/mpl-data/fonts/afm/pncr8a.afm'
p1691
aS'/usr/share/matplotlib/mpl-data/fonts/pdfcorefonts/Times-Italic.afm'
p1692
aS'/usr/share/matplotlib/mpl-data/fonts/afm/cmex10.afm'
p1693
aS'/usr/share/matplotlib/mpl-data/fonts/pdfcorefonts/Times-Roman.afm'
p1694
aS'/usr/share/matplotlib/mpl-data/fonts/afm/pbkdi8a.afm'
p1695
aS'/usr/share/matplotlib/mpl-data/fonts/pdfcorefonts/Courier.afm'
p1696
aS'/usr/share/matplotlib/mpl-data/fonts/afm/phvb8an.afm'
p1697
aS'/usr/share/fonts/X11/Type1/lmtt10.afm'
p1698
aS'/usr/share/fonts/X11/Type1/qcsri.afm'
p1699
aS'/usr/share/fonts/X11/Type1/lmssqo8.afm'
p1700
aS'/usr/share/fonts/type1/gsfonts/b018015l.afm'
p1701
aS'/usr/share/fonts/X11/Type1/lmbxo10.afm'
p1702
aS'/usr/share/fonts/type1/gsfonts/n022024l.afm'
p1703
aS'/usr/share/fonts/X11/Type1/lmtlc10.afm'
p1704
aS'/usr/share/fonts/type1/gsfonts/n019004l.afm'
p1705
aS'/usr/share/fonts/X11/Type1/lmtk10.afm'
p1706
aS'/usr/share/fonts/X11/Type1/qbkr.afm'
p1707
aS'/usr/share/fonts/X11/Type1/lmdunh10.afm'
p1708
aS'/usr/share/fonts/type1/gsfonts/n019003l.afm'
p1709
aS'/usr/share/fonts/type1/gsfonts/p052004l.afm'
p1710
aS'/usr/share/fonts/X11/Type1/qcrr.afm'
p1711
aS'/usr/share/fonts/type1/gsfonts/c059036l.afm'
p1712
aS'/usr/share/fonts/X11/Type1/qtmb.afm'
p1713
aS'/usr/share/fonts/X11/Type1/qhvcb.afm'
p1714
aS'/usr/share/fonts/X11/Type1/lmssbx10.afm'
p1715
aS'/usr/share/fonts/X11/Type1/lmvtlo10.afm'
p1716
aS'/usr/share/fonts/X11/Type1/lmtcso10.afm'
p1717
aS'/usr/share/fonts/X11/Type1/lmtti10.afm'
p1718
aS'/usr/share/fonts/X11/Type1/c0419bt_.afm'
p1719
aS'/usr/share/fonts/type1/gsfonts/n021024l.afm'
p1720
aS'/usr/share/fonts/type1/gsfonts/n019024l.afm'
p1721
aS'/usr/share/fonts/X11/Type1/qhvbi.afm'
p1722
aS'/usr/share/fonts/X11/Type1/qcsb.afm'
p1723
aS'/usr/share/fonts/X11/Type1/lmbx10.afm'
p1724
aS'/usr/share/fonts/type1/gsfonts/d050000l.afm'
p1725
aS'/usr/share/fonts/X11/Type1/lmssdo10.afm'
p1726
aS'/usr/share/fonts/X11/Type1/lmssqbx8.afm'
p1727
aS'/usr/share/fonts/X11/Type1/qhvb.afm'
p1728
aS'/usr/share/fonts/X11/Type1/c0649bt_.afm'
p1729
aS'/usr/share/fonts/X11/Type1/c0648bt_.afm'
p1730
aS'/usr/share/fonts/type1/gsfonts/z003034l.afm'
p1731
aS'/usr/share/fonts/X11/Type1/qhvr.afm'
p1732
aS'/usr/share/fonts/X11/Type1/lmbxi10.afm'
p1733
aS'/usr/share/fonts/type1/gsfonts/b018012l.afm'
p1734
aS'/usr/share/fonts/X11/Type1/lmssbo10.afm'
p1735
aS'/usr/share/fonts/X11/Type1/qplr.afm'
p1736
aS'/usr/share/fonts/X11/Type1/qcsr.afm'
p1737
aS'/usr/share/fonts/type1/gsfonts/a010013l.afm'
p1738
aS'/usr/share/fonts/X11/Type1/c0583bt_.afm'
p1739
aS'/usr/share/fonts/X11/Type1/qagri.afm'
p1740
aS'/usr/share/fonts/X11/Type1/qbkbi.afm'
p1741
aS'/usr/share/fonts/X11/Type1/lmcsc10.afm'
p1742
aS'/usr/share/fonts/type1/gsfonts/n019063l.afm'
p1743
aS'/usr/share/fonts/X11/Type1/qcrbi.afm'
p1744
aS'/usr/share/fonts/X11/Type1/qcrb.afm'
p1745
aS'/usr/share/fonts/X11/Type1/lmssqbo8.afm'
p1746
aS'/usr/share/fonts/type1/gsfonts/p052003l.afm'
p1747
aS'/usr/share/fonts/type1/gsfonts/b018032l.afm'
p1748
aS'/usr/share/fonts/X11/Type1/lmvtk10.afm'
p1749
aS'/usr/share/fonts/type1/gsfonts/n021023l.afm'
p1750
aS'/usr/share/fonts/X11/Type1/qhvri.afm'
p1751
aS'/usr/share/fonts/X11/Type1/lmtlo10.afm'
p1752
aS'/usr/share/fonts/X11/Type1/lmvtl10.afm'
p1753
aS'/usr/share/fonts/type1/gsfonts/n021003l.afm'
p1754
aS'/usr/share/fonts/X11/Type1/lmsso10.afm'
p1755
aS'/usr/share/fonts/type1/gsfonts/s050000l.afm'
p1756
aS'/usr/share/fonts/type1/gsfonts/n021004l.afm'
p1757
aS'/usr/share/fonts/type1/gsfonts/p052024l.afm'
p1758
aS'/usr/share/fonts/X11/Type1/qtmri.afm'
p1759
aS'/usr/share/fonts/X11/Type1/qbkb.afm'
p1760
aS'/usr/share/fonts/X11/Type1/lmb10.afm'
p1761
aS'/usr/share/fonts/type1/gsfonts/c059013l.afm'
p1762
aS'/usr/share/fonts/X11/Type1/qtmr.afm'
p1763
aS'/usr/share/fonts/X11/Type1/lmtcsc10.afm'
p1764
aS'/usr/share/fonts/X11/Type1/lmcsco10.afm'
p1765
aS'/usr/share/fonts/X11/Type1/qagb.afm'
p1766
aS'/usr/share/fonts/X11/Type1/c0633bt_.afm'
p1767
aS'/usr/share/fonts/X11/Type1/lmvtto10.afm'
p1768
aS'/usr/share/fonts/X11/Type1/lmss10.afm'
p1769
aS'/usr/share/fonts/X11/Type1/lmvtt10.afm'
p1770
aS'/usr/share/fonts/type1/gsfonts/b018035l.afm'
p1771
aS'/usr/share/fonts/X11/Type1/lmduno10.afm'
p1772
aS'/usr/share/fonts/X11/Type1/qtmbi.afm'
p1773
aS'/usr/share/fonts/X11/Type1/qcsbi.afm'
p1774
aS'/usr/share/fonts/type1/gsfonts/n022004l.afm'
p1775
aS'/usr/share/fonts/type1/mathml/Symbol.afm'
p1776
aS'/usr/share/fonts/X11/Type1/qhvcbi.afm'
p1777
aS'/usr/share/fonts/X11/Type1/lmri10.afm'
p1778
aS'/usr/share/fonts/X11/Type1/Symbol.afm'
p1779
aS'/usr/share/fonts/X11/Type1/lmr10.afm'
p1780
aS'/usr/share/fonts/type1/gsfonts/a010015l.afm'
p1781
aS'/usr/share/fonts/X11/Type1/lmtl10.afm'
p1782
aS'/usr/share/fonts/X11/Type1/qplri.afm'
p1783
aS'/usr/share/fonts/X11/Type1/qagbi.afm'
p1784
aS'/usr/share/fonts/X11/Type1/qhvcr.afm'
p1785
aS'/usr/share/fonts/X11/Type1/lmtlco10.afm'
p1786
aS'/usr/share/fonts/type1/gsfonts/c059016l.afm'
p1787
aS'/usr/share/fonts/X11/Type1/qplb.afm'
p1788
aS'/usr/share/fonts/type1/gsfonts/n019044l.afm'
p1789
aS'/usr/share/fonts/type1/gsfonts/n022003l.afm'
p1790
aS'/usr/share/fonts/type1/gsfonts/a010033l.afm'
p1791
aS'/usr/share/fonts/X11/Type1/lmvtko10.afm'
p1792
aS'/usr/share/fonts/type1/gsfonts/c059033l.afm'
p1793
aS'/usr/share/fonts/X11/Type1/qcrri.afm'
p1794
aS'/usr/share/fonts/type1/gsfonts/n019064l.afm'
p1795
aS'/usr/share/fonts/X11/Type1/c0582bt_.afm'
p1796
aS'/usr/share/fonts/X11/Type1/lmssq8.afm'
p1797
aS'/usr/share/fonts/X11/Type1/lmro10.afm'
p1798
aS'/usr/share/fonts/X11/Type1/qagr.afm'
p1799
aS'/usr/share/fonts/type1/gsfonts/n019043l.afm'
p1800
aS'/usr/share/fonts/type1/gsfonts/n019023l.afm'
p1801
aS'/usr/share/fonts/X11/Type1/lmtko10.afm'
p1802
aS'/usr/share/fonts/X11/Type1/c0611bt_.afm'
p1803
aS'/usr/share/fonts/X11/Type1/lmbo10.afm'
p1804
aS'/usr/share/fonts/type1/gsfonts/p052023l.afm'
p1805
aS'/usr/share/fonts/X11/Type1/qplbi.afm'
p1806
aS'/usr/share/fonts/X11/Type1/lmssdc10.afm'
p1807
aS'/usr/share/fonts/X11/Type1/lmtto10.afm'
p1808
aS'/usr/share/fonts/type1/gsfonts/n022023l.afm'
p1809
aS'/usr/share/fonts/X11/Type1/qhvcri.afm'
p1810
aS'/usr/share/fonts/type1/gsfonts/a010035l.afm'
p1811
aS'/usr/share/fonts/X11/Type1/qbkri.afm'
p1812
aS'/usr/share/fonts/X11/Type1/c0632bt_.afm'
p1813
aS'/usr/share/fonts/X11/Type1/lmu10.afm'
p1814
asS'afmlist'
p1815
(lp1816
g7
(g8
g9
NtRp1817
(dp1818
g12
g29
sg14
S'ITC Zapf Chancery'
p1819
sg16
I500
sg17
g13
sg18
g13
sg19
g1638
sg21
g22
sbag7
(g8
g9
NtRp1820
(dp1821
g12
g13
sg14
S'Helvetica'
p1822
sg16
I500
sg17
g13
sg18
g13
sg19
g1639
sg21
g22
sbag7
(g8
g9
NtRp1823
(dp1824
g12
g13
sg14
S'Helvetica'
p1825
sg16
I200
sg17
g13
sg18
g13
sg19
g1640
sg21
g22
sbag7
(g8
g9
NtRp1826
(dp1827
g12
g29
sg14
S'Utopia'
p1828
sg16
I700
sg17
g13
sg18
g13
sg19
g1641
sg21
g22
sbag7
(g8
g9
NtRp1829
(dp1830
g12
g29
sg14
S'Helvetica'
p1831
sg16
I700
sg17
g13
sg18
g13
sg19
g1642
sg21
g22
sbag7
(g8
g9
NtRp1832
(dp1833
g12
g29
sg14
S'Helvetica'
p1834
sg16
I500
sg17
g171
sg18
g13
sg19
g1643
sg21
g22
sbag7
(g8
g9
NtRp1835
(dp1836
g12
g13
sg14
S'ITC Bookman'
p1837
sg16
I600
sg17
g13
sg18
g13
sg19
g1644
sg21
g22
sbag7
(g8
g9
NtRp1838
(dp1839
g12
g29
sg14
S'Courier'
p1840
sg16
I700
sg17
g13
sg18
g13
sg19
g1645
sg21
g22
sbag7
(g8
g9
NtRp1841
(dp1842
g12
g13
sg14
S'Helvetica'
p1843
sg16
I700
sg17
g13
sg18
g13
sg19
g1646
sg21
g22
sbag7
(g8
g9
NtRp1844
(dp1845
g12
g29
sg14
S'Times'
p1846
sg16
I700
sg17
g13
sg18
g13
sg19
g1647
sg21
g22
sbag7
(g8
g9
NtRp1847
(dp1848
g12
g13
sg14
S'Utopia'
p1849
sg16
I400
sg17
g13
sg18
g13
sg19
g1648
sg21
g22
sbag7
(g8
g9
NtRp1850
(dp1851
g12
g29
sg14
S'ITC Avant Garde Gothic'
p1852
sg16
I600
sg17
g13
sg18
g13
sg19
g1649
sg21
g22
sbag7
(g8
g9
NtRp1853
(dp1854
g12
g13
sg14
S'Courier'
p1855
sg16
I500
sg17
g13
sg18
g13
sg19
g1650
sg21
g22
sbag7
(g8
g9
NtRp1856
(dp1857
g12
g29
sg14
S'New Century Schoolbook'
p1858
sg16
I500
sg17
g13
sg18
g13
sg19
g1651
sg21
g22
sbag7
(g8
g9
NtRp1859
(dp1860
g12
g13
sg14
S'New Century Schoolbook'
p1861
sg16
I700
sg17
g13
sg18
g13
sg19
g1652
sg21
g22
sbag7
(g8
g9
NtRp1862
(dp1863
g12
g13
sg14
S'Courier'
p1864
sg16
I700
sg17
g13
sg18
g13
sg19
g1653
sg21
g22
sbag7
(g8
g9
NtRp1865
(dp1866
g12
g29
sg14
S'Courier'
p1867
sg16
I500
sg17
g13
sg18
g13
sg19
g1654
sg21
g22
sbag7
(g8
g9
NtRp1868
(dp1869
g12
g13
sg14
S'Helvetica'
p1870
sg16
I500
sg17
g13
sg18
g13
sg19
g1655
sg21
g22
sbag7
(g8
g9
NtRp1871
(dp1872
g12
g13
sg14
S'Computer Modern'
p1873
sg16
I500
sg17
g13
sg18
g13
sg19
g1656
sg21
g22
sbag7
(g8
g9
NtRp1874
(dp1875
g12
g13
sg14
S'Symbol'
p1876
sg16
I500
sg17
g13
sg18
g13
sg19
g1657
sg21
g22
sbag7
(g8
g9
NtRp1877
(dp1878
g12
g13
sg14
S'Helvetica'
p1879
sg16
I500
sg17
g171
sg18
g13
sg19
g1658
sg21
g22
sbag7
(g8
g9
NtRp1880
(dp1881
g12
g29
sg14
S'Helvetica'
p1882
sg16
I500
sg17
g13
sg18
g13
sg19
g1659
sg21
g22
sbag7
(g8
g9
NtRp1883
(dp1884
g12
g13
sg14
S'Times'
p1885
sg16
I500
sg17
g13
sg18
g13
sg19
g1660
sg21
g22
sbag7
(g8
g9
NtRp1886
(dp1887
g12
g29
sg14
S'Helvetica'
p1888
sg16
I500
sg17
g13
sg18
g13
sg19
g1661
sg21
g22
sbag7
(g8
g9
NtRp1889
(dp1890
g12
g29
sg14
S'Palatino'
p1891
sg16
I700
sg17
g13
sg18
g13
sg19
g1662
sg21
g22
sbag7
(g8
g9
NtRp1892
(dp1893
g12
g29
sg14
S'Computer Modern'
p1894
sg16
I500
sg17
g13
sg18
g13
sg19
g1663
sg21
g22
sbag7
(g8
g9
NtRp1895
(dp1896
g12
g13
sg14
S'ITC Avant Garde Gothic'
p1897
sg16
I400
sg17
g13
sg18
g13
sg19
g1664
sg21
g22
sbag7
(g8
g9
NtRp1898
(dp1899
g12
g29
sg14
S'Courier'
p1900
sg16
I700
sg17
g13
sg18
g13
sg19
g1665
sg21
g22
sbag7
(g8
g9
NtRp1901
(dp1902
g12
g13
sg14
S'Utopia'
p1903
sg16
I700
sg17
g13
sg18
g13
sg19
g1666
sg21
g22
sbag7
(g8
g9
NtRp1904
(dp1905
g12
g29
sg14
S'Computer Modern'
p1906
sg16
I500
sg17
g13
sg18
g13
sg19
g1667
sg21
g22
sbag7
(g8
g9
NtRp1907
(dp1908
g12
g29
sg14
S'ITC Avant Garde Gothic'
p1909
sg16
I400
sg17
g13
sg18
g13
sg19
g1668
sg21
g22
sbag7
(g8
g9
NtRp1910
(dp1911
g12
g29
sg14
S'Helvetica'
p1912
sg16
I700
sg17
g171
sg18
g13
sg19
g1669
sg21
g22
sbag7
(g8
g9
NtRp1913
(dp1914
g12
g29
sg14
S'Helvetica'
p1915
sg16
I700
sg17
g13
sg18
g13
sg19
g1670
sg21
g22
sbag7
(g8
g9
NtRp1916
(dp1917
g12
g13
sg14
S'Computer Modern'
p1918
sg16
I500
sg17
g13
sg18
g13
sg19
g1671
sg21
g22
sbag7
(g8
g9
NtRp1919
(dp1920
g12
g13
sg14
S'Times'
p1921
sg16
I700
sg17
g13
sg18
g13
sg19
g1672
sg21
g22
sbag7
(g8
g9
NtRp1922
(dp1923
g12
g13
sg14
S'Times'
p1924
sg16
I700
sg17
g13
sg18
g13
sg19
g1673
sg21
g22
sbag7
(g8
g9
NtRp1925
(dp1926
g12
g29
sg14
S'Helvetica'
p1927
sg16
I200
sg17
g13
sg18
g13
sg19
g1674
sg21
g22
sbag7
(g8
g9
NtRp1928
(dp1929
g12
g13
sg14
S'Helvetica'
p1930
sg16
I700
sg17
g13
sg18
g13
sg19
g1675
sg21
g22
sbag7
(g8
g9
NtRp1931
(dp1932
g12
g13
sg14
S'Palatino'
p1933
sg16
I700
sg17
g13
sg18
g13
sg19
g1676
sg21
g22
sbag7
(g8
g9
NtRp1934
(dp1935
g12
g13
sg14
S'ITC Zapf Dingbats'
p1936
sg16
I500
sg17
g13
sg18
g13
sg19
g1677
sg21
g22
sbag7
(g8
g9
NtRp1937
(dp1938
g12
g29
sg14
S'Times'
p1939
sg16
I500
sg17
g13
sg18
g13
sg19
g1678
sg21
g22
sbag7
(g8
g9
NtRp1940
(dp1941
g12
g13
sg14
S'Palatino'
p1942
sg16
I500
sg17
g13
sg18
g13
sg19
g1679
sg21
g22
sbag7
(g8
g9
NtRp1943
(dp1944
g12
g13
sg14
S'ITC Bookman'
p1945
sg16
I200
sg17
g13
sg18
g13
sg19
g1680
sg21
g22
sbag7
(g8
g9
NtRp1946
(dp1947
g12
g29
sg14
S'New Century Schoolbook'
p1948
sg16
I700
sg17
g13
sg18
g13
sg19
g1681
sg21
g22
sbag7
(g8
g9
NtRp1949
(dp1950
g12
g13
sg14
S'ZapfDingbats'
p1951
sg16
I500
sg17
g13
sg18
g13
sg19
g1682
sg21
g22
sbag7
(g8
g9
NtRp1952
(dp1953
g12
g13
sg14
S'Symbol'
p1954
sg16
I500
sg17
g13
sg18
g13
sg19
g1683
sg21
g22
sbag7
(g8
g9
NtRp1955
(dp1956
g12
g29
sg14
S'Utopia'
p1957
sg16
I400
sg17
g13
sg18
g13
sg19
g1684
sg21
g22
sbag7
(g8
g9
NtRp1958
(dp1959
g12
g29
sg14
S'Palatino'
p1960
sg16
I500
sg17
g13
sg18
g13
sg19
g1685
sg21
g22
sbag7
(g8
g9
NtRp1961
(dp1962
g12
g29
sg14
S'Times'
p1963
sg16
I700
sg17
g13
sg18
g13
sg19
g1686
sg21
g22
sbag7
(g8
g9
NtRp1964
(dp1965
g12
g29
sg14
S'ITC Bookman'
p1966
sg16
I200
sg17
g13
sg18
g13
sg19
g1687
sg21
g22
sbag7
(g8
g9
NtRp1967
(dp1968
g12
g29
sg14
S'Courier'
p1969
sg16
I500
sg17
g13
sg18
g13
sg19
g1688
sg21
g22
sbag7
(g8
g9
NtRp1970
(dp1971
g12
g13
sg14
S'Courier'
p1972
sg16
I700
sg17
g13
sg18
g13
sg19
g1689
sg21
g22
sbag7
(g8
g9
NtRp1973
(dp1974
g12
g13
sg14
S'ITC Avant Garde Gothic'
p1975
sg16
I600
sg17
g13
sg18
g13
sg19
g1690
sg21
g22
sbag7
(g8
g9
NtRp1976
(dp1977
g12
g13
sg14
S'New Century Schoolbook'
p1978
sg16
I500
sg17
g13
sg18
g13
sg19
g1691
sg21
g22
sbag7
(g8
g9
NtRp1979
(dp1980
g12
g29
sg14
S'Times'
p1981
sg16
I500
sg17
g13
sg18
g13
sg19
g1692
sg21
g22
sbag7
(g8
g9
NtRp1982
(dp1983
g12
g13
sg14
S'Computer Modern'
p1984
sg16
I500
sg17
g13
sg18
g13
sg19
g1693
sg21
g22
sbag7
(g8
g9
NtRp1985
(dp1986
g12
g13
sg14
S'Times'
p1987
sg16
I500
sg17
g13
sg18
g13
sg19
g1694
sg21
g22
sbag7
(g8
g9
NtRp1988
(dp1989
g12
g29
sg14
S'ITC Bookman'
p1990
sg16
I600
sg17
g13
sg18
g13
sg19
g1695
sg21
g22
sbag7
(g8
g9
NtRp1991
(dp1992
g12
g13
sg14
S'Courier'
p1993
sg16
I500
sg17
g13
sg18
g13
sg19
g1696
sg21
g22
sbag7
(g8
g9
NtRp1994
(dp1995
g12
g13
sg14
S'Helvetica'
p1996
sg16
I700
sg17
g171
sg18
g13
sg19
g1697
sg21
g22
sbag7
(g8
g9
NtRp1997
(dp1998
g12
g13
sg14
S'LMMono10'
p1999
sg16
I400
sg17
g13
sg18
g13
sg19
g1698
sg21
g22
sbag7
(g8
g9
NtRp2000
(dp2001
g12
g29
sg14
S'TeXGyreSchola'
p2002
sg16
I400
sg17
g13
sg18
g13
sg19
g1699
sg21
g22
sbag7
(g8
g9
NtRp2003
(dp2004
g12
g29
sg14
S'LMSansQuot8'
p2005
sg16
I400
sg17
g13
sg18
g13
sg19
g1700
sg21
g22
sbag7
(g8
g9
NtRp2006
(dp2007
g12
g13
sg14
S'URW Bookman L'
p2008
sg16
I700
sg17
g13
sg18
g13
sg19
g1701
sg21
g22
sbag7
(g8
g9
NtRp2009
(dp2010
g12
g29
sg14
S'LMRomanSlant10'
p2011
sg16
I700
sg17
g13
sg18
g13
sg19
g1702
sg21
g22
sbag7
(g8
g9
NtRp2012
(dp2013
g12
g29
sg14
S'Nimbus Mono L'
p2014
sg16
I700
sg17
g13
sg18
g13
sg19
g1703
sg21
g22
sbag7
(g8
g9
NtRp2015
(dp2016
g12
g13
sg14
S'LMMonoLtCond10'
p2017
sg16
I200
sg17
g171
sg18
g13
sg19
g1704
sg21
g22
sbag7
(g8
g9
NtRp2018
(dp2019
g12
g13
sg14
S'Nimbus Sans L'
p2020
sg16
I700
sg17
g13
sg18
g13
sg19
g1705
sg21
g22
sbag7
(g8
g9
NtRp2021
(dp2022
g12
g13
sg14
S'LMMonoLt10'
p2023
sg16
I700
sg17
g13
sg18
g13
sg19
g1706
sg21
g22
sbag7
(g8
g9
NtRp2024
(dp2025
g12
g13
sg14
S'TeXGyreBonum'
p2026
sg16
I400
sg17
g13
sg18
g13
sg19
g1707
sg21
g22
sbag7
(g8
g9
NtRp2027
(dp2028
g12
g13
sg14
S'LMRomanDunh10'
p2029
sg16
I400
sg17
g13
sg18
g13
sg19
g1708
sg21
g22
sbag7
(g8
g9
NtRp2030
(dp2031
g12
g13
sg14
S'Nimbus Sans L'
p2032
sg16
I400
sg17
g13
sg18
g13
sg19
g1709
sg21
g22
sbag7
(g8
g9
NtRp2033
(dp2034
g12
g13
sg14
S'URW Palladio L'
p2035
sg16
I700
sg17
g13
sg18
g13
sg19
g1710
sg21
g22
sbag7
(g8
g9
NtRp2036
(dp2037
g12
g13
sg14
S'TeXGyreCursor'
p2038
sg16
I400
sg17
g13
sg18
g13
sg19
g1711
sg21
g22
sbag7
(g8
g9
NtRp2039
(dp2040
g12
g29
sg14
S'Century Schoolbook L'
p2041
sg16
I700
sg17
g13
sg18
g13
sg19
g1712
sg21
g22
sbag7
(g8
g9
NtRp2042
(dp2043
g12
g13
sg14
S'TeXGyreTermes'
p2044
sg16
I700
sg17
g13
sg18
g13
sg19
g1713
sg21
g22
sbag7
(g8
g9
NtRp2045
(dp2046
g12
g13
sg14
S'TeXGyreHerosCondensed'
p2047
sg16
I700
sg17
g171
sg18
g13
sg19
g1714
sg21
g22
sbag7
(g8
g9
NtRp2048
(dp2049
g12
g13
sg14
S'LMSans10'
p2050
sg16
I700
sg17
g13
sg18
g13
sg19
g1715
sg21
g22
sbag7
(g8
g9
NtRp2051
(dp2052
g12
g29
sg14
S'LMMonoPropLt10'
p2053
sg16
I200
sg17
g13
sg18
g13
sg19
g1716
sg21
g22
sbag7
(g8
g9
NtRp2054
(dp2055
g12
g29
sg14
S'LMMonoCaps10'
p2056
sg16
I400
sg17
g13
sg18
g13
sg19
g1717
sg21
g22
sbag7
(g8
g9
NtRp2057
(dp2058
g12
g29
sg14
S'LMMono10'
p2059
sg16
I400
sg17
g13
sg18
g13
sg19
g1718
sg21
g22
sbag7
(g8
g9
NtRp2060
(dp2061
g12
g13
sg14
S'Courier 10 Pitch'
p2062
sg16
I400
sg17
g13
sg18
g13
sg19
g1719
sg21
g22
sbag7
(g8
g9
NtRp2063
(dp2064
g12
g29
sg14
S'Nimbus Roman No9 L'
p2065
sg16
I700
sg17
g13
sg18
g13
sg19
g1720
sg21
g22
sbag7
(g8
g9
NtRp2066
(dp2067
g12
g29
sg14
S'Nimbus Sans L'
p2068
sg16
I700
sg17
g13
sg18
g13
sg19
g1721
sg21
g22
sbag7
(g8
g9
NtRp2069
(dp2070
g12
g29
sg14
S'TeXGyreHeros'
p2071
sg16
I700
sg17
g13
sg18
g13
sg19
g1722
sg21
g22
sbag7
(g8
g9
NtRp2072
(dp2073
g12
g13
sg14
S'TeXGyreSchola'
p2074
sg16
I700
sg17
g13
sg18
g13
sg19
g1723
sg21
g22
sbag7
(g8
g9
NtRp2075
(dp2076
g12
g13
sg14
S'LMRoman10'
p2077
sg16
I700
sg17
g13
sg18
g13
sg19
g1724
sg21
g22
sbag7
(g8
g9
NtRp2078
(dp2079
g12
g13
sg14
S'Dingbats'
p2080
sg16
I400
sg17
g13
sg18
g13
sg19
g1725
sg21
g22
sbag7
(g8
g9
NtRp2081
(dp2082
g12
g29
sg14
S'LMSansDemiCond10'
p2083
sg16
I600
sg17
g171
sg18
g13
sg19
g1726
sg21
g22
sbag7
(g8
g9
NtRp2084
(dp2085
g12
g13
sg14
S'LMSansQuot8'
p2086
sg16
I700
sg17
g13
sg18
g13
sg19
g1727
sg21
g22
sbag7
(g8
g9
NtRp2087
(dp2088
g12
g13
sg14
S'TeXGyreHeros'
p2089
sg16
I700
sg17
g13
sg18
g13
sg19
g1728
sg21
g22
sbag7
(g8
g9
NtRp2090
(dp2091
g12
g29
sg14
S'Bitstream Charter'
p2092
sg16
I400
sg17
g13
sg18
g13
sg19
g1729
sg21
g22
sbag7
(g8
g9
NtRp2093
(dp2094
g12
g13
sg14
S'Bitstream Charter'
p2095
sg16
I400
sg17
g13
sg18
g13
sg19
g1730
sg21
g22
sbag7
(g8
g9
NtRp2096
(dp2097
g12
g29
sg14
S'URW Chancery L'
p2098
sg16
I500
sg17
g13
sg18
g13
sg19
g1731
sg21
g22
sbag7
(g8
g9
NtRp2099
(dp2100
g12
g13
sg14
S'TeXGyreHeros'
p2101
sg16
I400
sg17
g13
sg18
g13
sg19
g1732
sg21
g22
sbag7
(g8
g9
NtRp2102
(dp2103
g12
g29
sg14
S'LMRoman10'
p2104
sg16
I700
sg17
g13
sg18
g13
sg19
g1733
sg21
g22
sbag7
(g8
g9
NtRp2105
(dp2106
g12
g13
sg14
S'URW Bookman L'
p2107
sg16
I400
sg17
g13
sg18
g13
sg19
g1734
sg21
g22
sbag7
(g8
g9
NtRp2108
(dp2109
g12
g29
sg14
S'LMSans10'
p2110
sg16
I700
sg17
g13
sg18
g13
sg19
g1735
sg21
g22
sbag7
(g8
g9
NtRp2111
(dp2112
g12
g13
sg14
S'TeXGyrePagella'
p2113
sg16
I400
sg17
g13
sg18
g13
sg19
g1736
sg21
g22
sbag7
(g8
g9
NtRp2114
(dp2115
g12
g13
sg14
S'TeXGyreSchola'
p2116
sg16
I400
sg17
g13
sg18
g13
sg19
g1737
sg21
g22
sbag7
(g8
g9
NtRp2117
(dp2118
g12
g13
sg14
S'URW Gothic L'
p2119
sg16
I400
sg17
g13
sg18
g13
sg19
g1738
sg21
g22
sbag7
(g8
g9
NtRp2120
(dp2121
g12
g13
sg14
S'Courier 10 Pitch'
p2122
sg16
I700
sg17
g13
sg18
g13
sg19
g1739
sg21
g22
sbag7
(g8
g9
NtRp2123
(dp2124
g12
g29
sg14
S'TeXGyreAdventor'
p2125
sg16
I400
sg17
g13
sg18
g13
sg19
g1740
sg21
g22
sbag7
(g8
g9
NtRp2126
(dp2127
g12
g29
sg14
S'TeXGyreBonum'
p2128
sg16
I700
sg17
g13
sg18
g13
sg19
g1741
sg21
g22
sbag7
(g8
g9
NtRp2129
(dp2130
g12
g13
sg14
S'LMRomanCaps10'
p2131
sg16
I400
sg17
g13
sg18
g13
sg19
g1742
sg21
g22
sbag7
(g8
g9
NtRp2132
(dp2133
g12
g29
sg14
S'Nimbus Sans L'
p2134
sg16
I400
sg17
g171
sg18
g13
sg19
g1743
sg21
g22
sbag7
(g8
g9
NtRp2135
(dp2136
g12
g29
sg14
S'TeXGyreCursor'
p2137
sg16
I700
sg17
g13
sg18
g13
sg19
g1744
sg21
g22
sbag7
(g8
g9
NtRp2138
(dp2139
g12
g13
sg14
S'TeXGyreCursor'
p2140
sg16
I700
sg17
g13
sg18
g13
sg19
g1745
sg21
g22
sbag7
(g8
g9
NtRp2141
(dp2142
g12
g29
sg14
S'LMSansQuot8'
p2143
sg16
I700
sg17
g13
sg18
g13
sg19
g1746
sg21
g22
sbag7
(g8
g9
NtRp2144
(dp2145
g12
g13
sg14
S'URW Palladio L'
p2146
sg16
I500
sg17
g13
sg18
g13
sg19
g1747
sg21
g22
sbag7
(g8
g9
NtRp2147
(dp2148
g12
g29
sg14
S'URW Bookman L'
p2149
sg16
I400
sg17
g13
sg18
g13
sg19
g1748
sg21
g22
sbag7
(g8
g9
NtRp2150
(dp2151
g12
g13
sg14
S'LMMonoPropLt10'
p2152
sg16
I700
sg17
g13
sg18
g13
sg19
g1749
sg21
g22
sbag7
(g8
g9
NtRp2153
(dp2154
g12
g29
sg14
S'Nimbus Roman No9 L'
p2155
sg16
I400
sg17
g13
sg18
g13
sg19
g1750
sg21
g22
sbag7
(g8
g9
NtRp2156
(dp2157
g12
g29
sg14
S'TeXGyreHeros'
p2158
sg16
I400
sg17
g13
sg18
g13
sg19
g1751
sg21
g22
sbag7
(g8
g9
NtRp2159
(dp2160
g12
g29
sg14
S'LMMonoLt10'
p2161
sg16
I200
sg17
g13
sg18
g13
sg19
g1752
sg21
g22
sbag7
(g8
g9
NtRp2162
(dp2163
g12
g13
sg14
S'LMMonoPropLt10'
p2164
sg16
I200
sg17
g13
sg18
g13
sg19
g1753
sg21
g22
sbag7
(g8
g9
NtRp2165
(dp2166
g12
g13
sg14
S'Nimbus Roman No9 L'
p2167
sg16
I400
sg17
g13
sg18
g13
sg19
g1754
sg21
g22
sbag7
(g8
g9
NtRp2168
(dp2169
g12
g29
sg14
S'LMSans10'
p2170
sg16
I400
sg17
g13
sg18
g13
sg19
g1755
sg21
g22
sbag7
(g8
g9
NtRp2171
(dp2172
g12
g13
sg14
S'Standard Symbols L'
p2173
sg16
I400
sg17
g13
sg18
g13
sg19
g1756
sg21
g22
sbag7
(g8
g9
NtRp2174
(dp2175
g12
g13
sg14
S'Nimbus Roman No9 L'
p2176
sg16
I700
sg17
g13
sg18
g13
sg19
g1757
sg21
g22
sbag7
(g8
g9
NtRp2177
(dp2178
g12
g29
sg14
S'URW Palladio L'
p2179
sg16
I700
sg17
g13
sg18
g13
sg19
g1758
sg21
g22
sbag7
(g8
g9
NtRp2180
(dp2181
g12
g29
sg14
S'TeXGyreTermes'
p2182
sg16
I400
sg17
g13
sg18
g13
sg19
g1759
sg21
g22
sbag7
(g8
g9
NtRp2183
(dp2184
g12
g13
sg14
S'TeXGyreBonum'
p2185
sg16
I700
sg17
g13
sg18
g13
sg19
g1760
sg21
g22
sbag7
(g8
g9
NtRp2186
(dp2187
g12
g13
sg14
S'LMRomanDemi10'
p2188
sg16
I600
sg17
g13
sg18
g13
sg19
g1761
sg21
g22
sbag7
(g8
g9
NtRp2189
(dp2190
g12
g13
sg14
S'Century Schoolbook L'
p2191
sg16
I500
sg17
g13
sg18
g13
sg19
g1762
sg21
g22
sbag7
(g8
g9
NtRp2192
(dp2193
g12
g13
sg14
S'TeXGyreTermes'
p2194
sg16
I400
sg17
g13
sg18
g13
sg19
g1763
sg21
g22
sbag7
(g8
g9
NtRp2195
(dp2196
g12
g13
sg14
S'LMMonoCaps10'
p2197
sg16
I400
sg17
g13
sg18
g13
sg19
g1764
sg21
g22
sbag7
(g8
g9
NtRp2198
(dp2199
g12
g29
sg14
S'LMRomanCaps10'
p2200
sg16
I400
sg17
g13
sg18
g13
sg19
g1765
sg21
g22
sbag7
(g8
g9
NtRp2201
(dp2202
g12
g13
sg14
S'TeXGyreAdventor'
p2203
sg16
I700
sg17
g13
sg18
g13
sg19
g1766
sg21
g22
sbag7
(g8
g9
NtRp2204
(dp2205
g12
g29
sg14
S'Bitstream Charter'
p2206
sg16
I700
sg17
g13
sg18
g13
sg19
g1767
sg21
g22
sbag7
(g8
g9
NtRp2207
(dp2208
g12
g29
sg14
S'LMMonoProp10'
p2209
sg16
I400
sg17
g13
sg18
g13
sg19
g1768
sg21
g22
sbag7
(g8
g9
NtRp2210
(dp2211
g12
g13
sg14
S'LMSans10'
p2212
sg16
I400
sg17
g13
sg18
g13
sg19
g1769
sg21
g22
sbag7
(g8
g9
NtRp2213
(dp2214
g12
g13
sg14
S'LMMonoProp10'
p2215
sg16
I400
sg17
g13
sg18
g13
sg19
g1770
sg21
g22
sbag7
(g8
g9
NtRp2216
(dp2217
g12
g29
sg14
S'URW Bookman L'
p2218
sg16
I700
sg17
g13
sg18
g13
sg19
g1771
sg21
g22
sbag7
(g8
g9
NtRp2219
(dp2220
g12
g29
sg14
S'LMRomanDunh10'
p2221
sg16
I400
sg17
g13
sg18
g13
sg19
g1772
sg21
g22
sbag7
(g8
g9
NtRp2222
(dp2223
g12
g29
sg14
S'TeXGyreTermes'
p2224
sg16
I700
sg17
g13
sg18
g13
sg19
g1773
sg21
g22
sbag7
(g8
g9
NtRp2225
(dp2226
g12
g29
sg14
S'TeXGyreSchola'
p2227
sg16
I400
sg17
g13
sg18
g13
sg19
g1774
sg21
g22
sbag7
(g8
g9
NtRp2228
(dp2229
g12
g13
sg14
S'Nimbus Mono L'
p2230
sg16
I700
sg17
g13
sg18
g13
sg19
g1775
sg21
g22
sbag7
(g8
g9
NtRp2231
(dp2232
g12
g29
sg14
S'TeXGyreHerosCondensed'
p2233
sg16
I700
sg17
g171
sg18
g13
sg19
g1777
sg21
g22
sbag7
(g8
g9
NtRp2234
(dp2235
g12
g29
sg14
S'LMRoman10'
p2236
sg16
I400
sg17
g13
sg18
g13
sg19
g1778
sg21
g22
sbag7
(g8
g9
NtRp2237
(dp2238
g12
g13
sg14
S'LMRoman10'
p2239
sg16
I400
sg17
g13
sg18
g13
sg19
g1780
sg21
g22
sbag7
(g8
g9
NtRp2240
(dp2241
g12
g13
sg14
S'URW Gothic L'
p2242
sg16
I600
sg17
g13
sg18
g13
sg19
g1781
sg21
g22
sbag7
(g8
g9
NtRp2243
(dp2244
g12
g13
sg14
S'LMMonoLt10'
p2245
sg16
I200
sg17
g13
sg18
g13
sg19
g1782
sg21
g22
sbag7
(g8
g9
NtRp2246
(dp2247
g12
g29
sg14
S'TeXGyrePagella'
p2248
sg16
I400
sg17
g13
sg18
g13
sg19
g1783
sg21
g22
sbag7
(g8
g9
NtRp2249
(dp2250
g12
g29
sg14
S'TeXGyreAdventor'
p2251
sg16
I700
sg17
g13
sg18
g13
sg19
g1784
sg21
g22
sbag7
(g8
g9
NtRp2252
(dp2253
g12
g13
sg14
S'TeXGyreHerosCondensed'
p2254
sg16
I400
sg17
g171
sg18
g13
sg19
g1785
sg21
g22
sbag7
(g8
g9
NtRp2255
(dp2256
g12
g29
sg14
S'LMMonoLtCond10'
p2257
sg16
I200
sg17
g171
sg18
g13
sg19
g1786
sg21
g22
sbag7
(g8
g9
NtRp2258
(dp2259
g12
g13
sg14
S'Century Schoolbook L'
p2260
sg16
I700
sg17
g13
sg18
g13
sg19
g1787
sg21
g22
sbag7
(g8
g9
NtRp2261
(dp2262
g12
g13
sg14
S'TeXGyrePagella'
p2263
sg16
I700
sg17
g13
sg18
g13
sg19
g1788
sg21
g22
sbag7
(g8
g9
NtRp2264
(dp2265
g12
g13
sg14
S'Nimbus Sans L'
p2266
sg16
I700
sg17
g171
sg18
g13
sg19
g1789
sg21
g22
sbag7
(g8
g9
NtRp2267
(dp2268
g12
g13
sg14
S'Nimbus Mono L'
p2269
sg16
I400
sg17
g13
sg18
g13
sg19
g1790
sg21
g22
sbag7
(g8
g9
NtRp2270
(dp2271
g12
g29
sg14
S'URW Gothic L'
p2272
sg16
I400
sg17
g13
sg18
g13
sg19
g1791
sg21
g22
sbag7
(g8
g9
NtRp2273
(dp2274
g12
g29
sg14
S'LMMonoPropLt10'
p2275
sg16
I700
sg17
g13
sg18
g13
sg19
g1792
sg21
g22
sbag7
(g8
g9
NtRp2276
(dp2277
g12
g29
sg14
S'Century Schoolbook L'
p2278
sg16
I400
sg17
g13
sg18
g13
sg19
g1793
sg21
g22
sbag7
(g8
g9
NtRp2279
(dp2280
g12
g29
sg14
S'TeXGyreCursor'
p2281
sg16
I400
sg17
g13
sg18
g13
sg19
g1794
sg21
g22
sbag7
(g8
g9
NtRp2282
(dp2283
g12
g29
sg14
S'Nimbus Sans L'
p2284
sg16
I700
sg17
g171
sg18
g13
sg19
g1795
sg21
g22
sbag7
(g8
g9
NtRp2285
(dp2286
g12
g29
sg14
S'Courier 10 Pitch'
p2287
sg16
I400
sg17
g13
sg18
g13
sg19
g1796
sg21
g22
sbag7
(g8
g9
NtRp2288
(dp2289
g12
g13
sg14
S'LMSansQuot8'
p2290
sg16
I400
sg17
g13
sg18
g13
sg19
g1797
sg21
g22
sbag7
(g8
g9
NtRp2291
(dp2292
g12
g29
sg14
S'LMRomanSlant10'
p2293
sg16
I400
sg17
g13
sg18
g13
sg19
g1798
sg21
g22
sbag7
(g8
g9
NtRp2294
(dp2295
g12
g13
sg14
S'TeXGyreAdventor'
p2296
sg16
I400
sg17
g13
sg18
g13
sg19
g1799
sg21
g22
sbag7
(g8
g9
NtRp2297
(dp2298
g12
g13
sg14
S'Nimbus Sans L'
p2299
sg16
I400
sg17
g171
sg18
g13
sg19
g1800
sg21
g22
sbag7
(g8
g9
NtRp2300
(dp2301
g12
g29
sg14
S'Nimbus Sans L'
p2302
sg16
I400
sg17
g13
sg18
g13
sg19
g1801
sg21
g22
sbag7
(g8
g9
NtRp2303
(dp2304
g12
g29
sg14
S'LMMonoLt10'
p2305
sg16
I700
sg17
g13
sg18
g13
sg19
g1802
sg21
g22
sbag7
(g8
g9
NtRp2306
(dp2307
g12
g29
sg14
S'Courier 10 Pitch'
p2308
sg16
I700
sg17
g13
sg18
g13
sg19
g1803
sg21
g22
sbag7
(g8
g9
NtRp2309
(dp2310
g12
g29
sg14
S'LMRomanDemi10'
p2311
sg16
I600
sg17
g13
sg18
g13
sg19
g1804
sg21
g22
sbag7
(g8
g9
NtRp2312
(dp2313
g12
g29
sg14
S'URW Palladio L'
p2314
sg16
I400
sg17
g13
sg18
g13
sg19
g1805
sg21
g22
sbag7
(g8
g9
NtRp2315
(dp2316
g12
g29
sg14
S'TeXGyrePagella'
p2317
sg16
I700
sg17
g13
sg18
g13
sg19
g1806
sg21
g22
sbag7
(g8
g9
NtRp2318
(dp2319
g12
g13
sg14
S'LMSansDemiCond10'
p2320
sg16
I600
sg17
g171
sg18
g13
sg19
g1807
sg21
g22
sbag7
(g8
g9
NtRp2321
(dp2322
g12
g29
sg14
S'LMMonoSlant10'
p2323
sg16
I400
sg17
g13
sg18
g13
sg19
g1808
sg21
g22
sbag7
(g8
g9
NtRp2324
(dp2325
g12
g29
sg14
S'Nimbus Mono L'
p2326
sg16
I400
sg17
g13
sg18
g13
sg19
g1809
sg21
g22
sbag7
(g8
g9
NtRp2327
(dp2328
g12
g29
sg14
S'TeXGyreHerosCondensed'
p2329
sg16
I400
sg17
g171
sg18
g13
sg19
g1810
sg21
g22
sbag7
(g8
g9
NtRp2330
(dp2331
g12
g29
sg14
S'URW Gothic L'
p2332
sg16
I600
sg17
g13
sg18
g13
sg19
g1811
sg21
g22
sbag7
(g8
g9
NtRp2333
(dp2334
g12
g29
sg14
S'TeXGyreBonum'
p2335
sg16
I400
sg17
g13
sg18
g13
sg19
g1812
sg21
g22
sbag7
(g8
g9
NtRp2336
(dp2337
g12
g13
sg14
S'Bitstream Charter'
p2338
sg16
I700
sg17
g13
sg18
g13
sg19
g1813
sg21
g22
sbag7
(g8
g9
NtRp2339
(dp2340
g12
g13
sg14
S'LMRomanUnsl10'
p2341
sg16
I400
sg17
g13
sg18
g13
sg19
g1814
sg21
g22
sbasb.