(imatplotlib.font_manager
FontManager
p1
(dp2
S'afm_lookup_cache'
p3
(dp4
sS'ttflist'
p5
(lp6
ccopy_reg
_reconstructor
p7
(cmatplotlib.font_manager
FontEntry
p8
c__builtin__
object
p9
NtRp10
(dp11
S'style'
p12
S'normal'
p13
sS'name'
p14
S'cmb10'
p15
sS'weight'
p16
I400
sS'stretch'
p17
g13
sS'variant'
p18
g13
sS'fname'
p19
S'/usr/share/matplotlib/mpl-data/fonts/ttf/cmb10.ttf'
p20
sS'size'
p21
S'scalable'
p22
sbag7
(g8
g9
NtRp23
(dp24
g12
g13
sg14
S'cmex10'
p25
sg16
I400
sg17
g13
sg18
g13
sg19
S'/usr/share/matplotlib/mpl-data/fonts/ttf/cmex10.ttf'
p26
sg21
g22
sbag7
(g8
g9
NtRp27
(dp28
g12
S'italic'
p29
sg14
S'STIXNonUnicode'
p30
sg16
I400
sg17
g13
sg18
g13
sg19
S'/usr/share/matplotlib/mpl-data/fonts/ttf/STIXNonUniIta.ttf'
p31
sg21
g22
sbag7
(g8
g9
NtRp32
(dp33
g12
g13
sg14
S'STIXNonUnicode'
p34
sg16
I400
sg17
g13
sg18
g13
sg19
S'/usr/share/matplotlib/mpl-data/fonts/ttf/STIXNonUni.ttf'
p35
sg21
g22
sbag7
(g8
g9
NtRp36
(dp37
g12
g13
sg14
S'STIXSize5'
p38
sg16
I400
sg17
g13
sg18
g13
sg19
S'/usr/share/matplotlib/mpl-data/fonts/ttf/STIXSiz5Sym.ttf'
p39
sg21
g22
sbag7
(g8
g9
NtRp40
(dp41
g12
g13
sg14
S'cmtt10'
p42
sg16
I400
sg17
g13
sg18
g13
sg19
S'/usr/share/matplotlib/mpl-data/fonts/ttf/cmtt10.ttf'
p43
sg21
g22
sbag7
(g8
g9
NtRp44
(dp45
g12
g13
sg14
S'STIXGeneral'
p46
sg16
I400
sg17
g13
sg18
g13
sg19
S'/usr/share/matplotlib/mpl-data/fonts/ttf/STIXGeneral.ttf'
p47
sg21
g22
sbag7
(g8
g9
NtRp48
(dp49
g12
g29
sg14
S'STIXNonUnicode'
p50
sg16
I700
sg17
g13
sg18
g13
sg19
S'/usr/share/matplotlib/mpl-data/fonts/ttf/STIXNonUniBolIta.ttf'
p51
sg21
g22
sbag7
(g8
g9
NtRp52
(dp53
g12
g13
sg14
S'STIXSize3'
p54
sg16
I700
sg17
g13
sg18
g13
sg19
S'/usr/share/matplotlib/mpl-data/fonts/ttf/STIXSiz3SymBol.ttf'
p55
sg21
g22
sbag7
(g8
g9
NtRp56
(dp57
g12
g13
sg14
S'STIXSize3'
p58
sg16
I400
sg17
g13
sg18
g13
sg19
S'/usr/share/matplotlib/mpl-data/fonts/ttf/STIXSiz3Sym.ttf'
p59
sg21
g22
sbag7
(g8
g9
NtRp60
(dp61
g12
g13
sg14
S'STIXSize2'
p62
sg16
I400
sg17
g13
sg18
g13
sg19
S'/usr/share/matplotlib/mpl-data/fonts/ttf/STIXSiz2Sym.ttf'
p63
sg21
g22
sbag7
(g8
g9
NtRp64
(dp65
g12
g13
sg14
S'STIXGeneral'
p66
sg16
I700
sg17
g13
sg18
g13
sg19
S'/usr/share/matplotlib/mpl-data/fonts/ttf/STIXGeneralBol.ttf'
p67
sg21
g22
sbag7
(g8
g9
NtRp68
(dp69
g12
g13
sg14
S'STIXSize4'
p70
sg16
I700
sg17
g13
sg18
g13
sg19
S'/usr/share/matplotlib/mpl-data/fonts/ttf/STIXSiz4SymBol.ttf'
p71
sg21
g22
sbag7
(g8
g9
NtRp72
(dp73
g12
g13
sg14
S'STIXSize2'
p74
sg16
I700
sg17
g13
sg18
g13
sg19
S'/usr/share/matplotlib/mpl-data/fonts/ttf/STIXSiz2SymBol.ttf'
p75
sg21
g22
sbag7
(g8
g9
NtRp76
(dp77
g12
g13
sg14
S'cmsy10'
p78
sg16
I400
sg17
g13
sg18
g13
sg19
S'/usr/share/matplotlib/mpl-data/fonts/ttf/cmsy10.ttf'
p79
sg21
g22
sbag7
(g8
g9
NtRp80
(dp81
g12
g13
sg14
S'cmss10'
p82
sg16
I400
sg17
g13
sg18
g13
sg19
S'/usr/share/matplotlib/mpl-data/fonts/ttf/cmss10.ttf'
p83
sg21
g22
sbag7
(g8
g9
NtRp84
(dp85
g12
g13
sg14
S'STIXSize1'
p86
sg16
I700
sg17
g13
sg18
g13
sg19
S'/usr/share/matplotlib/mpl-data/fonts/ttf/STIXSiz1SymBol.ttf'
p87
sg21
g22
sbag7
(g8
g9
NtRp88
(dp89
g12
g29
sg14
S'STIXGeneral'
p90
sg16
I400
sg17
g13
sg18
g13
sg19
S'/usr/share/matplotlib/mpl-data/fonts/ttf/STIXGeneralItalic.ttf'
p91
sg21
g22
sbag7
(g8
g9
NtRp92
(dp93
g12
g13
sg14
S'cmr10'
p94
sg16
I400
sg17
g13
sg18
g13
sg19
S'/usr/share/matplotlib/mpl-data/fonts/ttf/cmr10.ttf'
p95
sg21
g22
sbag7
(g8
g9
NtRp96
(dp97
g12
g13
sg14
S'STIXSize4'
p98
sg16
I400
sg17
g13
sg18
g13
sg19
S'/usr/share/matplotlib/mpl-data/fonts/ttf/STIXSiz4Sym.ttf'
p99
sg21
g22
sbag7
(g8
g9
NtRp100
(dp101
g12
g13
sg14
S'STIXSize1'
p102
sg16
I400
sg17
g13
sg18
g13
sg19
S'/usr/share/matplotlib/mpl-data/fonts/ttf/STIXSiz1Sym.ttf'
p103
sg21
g22
sbag7
(g8
g9
NtRp104
(dp105
g12
g13
sg14
S'cmmi10'
p106
sg16
I400
sg17
g13
sg18
g13
sg19
S'/usr/share/matplotlib/mpl-data/fonts/ttf/cmmi10.ttf'
p107
sg21
g22
sbag7
(g8
g9
NtRp108
(dp109
g12
g13
sg14
S'STIXNonUnicode'
p110
sg16
I700
sg17
g13
sg18
g13
sg19
S'/usr/share/matplotlib/mpl-data/fonts/ttf/STIXNonUniBol.ttf'
p111
sg21
g22
sbag7
(g8
g9
NtRp112
(dp113
g12
g29
sg14
S'STIXGeneral'
p114
sg16
I700
sg17
g13
sg18
g13
sg19
S'/usr/share/matplotlib/mpl-data/fonts/ttf/STIXGeneralBolIta.ttf'
p115
sg21
g22
sbag7
(g8
g9
NtRp116
(dp117
g12
S'oblique'
p118
sg14
S'Purisa'
p119
sg16
I700
sg17
g13
sg18
g13
sg19
S'/usr/share/fonts/truetype/thai/Purisa-BoldOblique.ttf'
p120
sg21
g22
sbag7
(g8
g9
NtRp121
(dp122
g12
g29
sg14
S'GFS Artemisia'
p123
sg16
I400
sg17
g13
sg18
g13
sg19
S'/usr/share/fonts/truetype/ttf-gfs-artemisia/GFSArtemisiaIt.otf'
p124
sg21
g22
sbag7
(g8
g9
NtRp125
(dp126
g12
g13
sg14
S'mry_KacstQurn'
p127
sg16
I400
sg17
g13
sg18
g13
sg19
S'/usr/share/fonts/truetype/ttf-kacst/mry_KacstQurn.ttf'
p128
sg21
g22
sbag7
(g8
g9
NtRp129
(dp130
g12
g13
sg14
S'Mallige'
p131
sg16
I700
sg17
g13
sg18
g13
sg19
S'/usr/share/fonts/truetype/ttf-indic-fonts-core/Malige-b.ttf'
p132
sg21
g22
sbag7
(g8
g9
NtRp133
(dp134
g12
g118
sg14
S'Kinnari'
p135
sg16
I700
sg17
g13
sg18
g13
sg19
S'/usr/share/fonts/truetype/thai/Kinnari-BoldOblique.ttf'
p136
sg21
g22
sbag7
(g8
g9
NtRp137
(dp138
g12
g13
sg14
S'Liberation Sans'
p139
sg16
I700
sg17
g13
sg18
g13
sg19
S'/usr/share/fonts/truetype/ttf-liberation/LiberationSans-Bold.ttf'
p140
sg21
g22
sbag7
(g8
g9
NtRp141
(dp142
g12
g118
sg14
S'Tlwg Typo'
p143
sg16
I400
sg17
g13
sg18
g13
sg19
S'/usr/share/fonts/truetype/thai/TlwgTypo-Oblique.ttf'
p144
sg21
g22
sbag7
(g8
g9
NtRp145
(dp146
g12
g13
sg14
S'GFS Solomos'
p147
sg16
I400
sg17
g13
sg18
g13
sg19
S'/usr/share/fonts/truetype/ttf-gfs-solomos/GFSSolomos.otf'
p148
sg21
g22
sbag7
(g8
g9
NtRp149
(dp150
g12
g29
sg14
S'GentiumAlt'
p151
sg16
I400
sg17
g13
sg18
g13
sg19
S'/usr/share/fonts/truetype/ttf-sil-gentium/GenAI102.ttf'
p152
sg21
g22
sbag7
(g8
g9
NtRp153
(dp154
g12
g13
sg14
S'Umpush'
p155
sg16
I400
sg17
g13
sg18
g13
sg19
S'/usr/share/fonts/truetype/thai/Umpush.ttf'
p156
sg21
g22
sbag7
(g8
g9
NtRp157
(dp158
g12
g13
sg14
S'Ume Gothic S5'
p159
sg16
I400
sg17
g13
sg18
g13
sg19
S'/usr/share/fonts/truetype/umefont/ume-tgs5.ttf'
p160
sg21
g22
sbag7
(g8
g9
NtRp161
(dp162
g12
g13
sg14
S'Times New Roman'
p163
sg16
I500
sg17
g13
sg18
g13
sg19
S'/usr/share/fonts/truetype/msttcorefonts/Times_New_Roman.ttf'
p164
sg21
g22
sbag7
(g8
g9
NtRp165
(dp166
g12
g118
sg14
S'Loma'
p167
sg16
I700
sg17
g13
sg18
g13
sg19
S'/usr/share/fonts/truetype/thai/Loma-BoldOblique.ttf'
p168
sg21
g22
sbag7
(g8
g9
NtRp169
(dp170
g12
g13
sg14
S'FreeSans'
p171
sg16
I400
sg17
g13
sg18
g13
sg19
S'/usr/share/fonts/truetype/freefont/FreeSans.ttf'
p172
sg21
g22
sbag7
(g8
g9
NtRp173
(dp174
g12
g13
sg14
S'UnBatang'
p175
sg16
I700
sg17
g13
sg18
g13
sg19
S'/usr/share/fonts/truetype/unfonts/UnBatangBold.ttf'
p176
sg21
g22
sbag7
(g8
g9
NtRp177
(dp178
g12
g29
sg14
S'Verdana'
p179
sg16
I400
sg17
g13
sg18
g13
sg19
S'/usr/share/fonts/truetype/msttcorefonts/verdanai.ttf'
p180
sg21
g22
sbag7
(g8
g9
NtRp181
(dp182
g12
g118
sg14
S'DejaVu Sans Mono'
p183
sg16
I400
sg17
g13
sg18
g13
sg19
S'/usr/share/fonts/truetype/ttf-dejavu/DejaVuSansMono-Oblique.ttf'
p184
sg21
g22
sbag7
(g8
g9
NtRp185
(dp186
g12
g29
sg14
S'rsfs10'
p187
sg16
I400
sg17
g13
sg18
g13
sg19
S'/usr/share/fonts/truetype/ttf-lyx/rsfs10.ttf'
p188
sg21
g22
sbag7
(g8
g9
NtRp189
(dp190
g12
g13
sg14
S'DejaVu Sans'
p191
sg16
I400
sg17
S'condensed'
p192
sg18
g13
sg19
S'/usr/share/fonts/truetype/ttf-dejavu/DejaVuSansCondensed.ttf'
p193
sg21
g22
sbag7
(g8
g9
NtRp194
(dp195
g12
g13
sg14
S'Liberation Mono'
p196
sg16
I700
sg17
g13
sg18
g13
sg19
S'/usr/share/fonts/truetype/ttf-liberation/LiberationMono-Bold.ttf'
p197
sg21
g22
sbag7
(g8
g9
NtRp198
(dp199
g12
g13
sg14
S'Droid Sans Fallback'
p200
sg16
I400
sg17
g13
sg18
g13
sg19
S'/usr/share/fonts/truetype/ttf-droid/DroidSansFallback.ttf'
p201
sg21
g22
sbag7
(g8
g9
NtRp202
(dp203
g12
g118
sg14
S'TlwgTypewriter'
p204
sg16
I400
sg17
g13
sg18
g13
sg19
S'/usr/share/fonts/truetype/thai/TlwgTypewriter-Oblique.ttf'
p205
sg21
g22
sbag7
(g8
g9
NtRp206
(dp207
g12
g29
sg14
S'Trebuchet MS'
p208
sg16
I400
sg17
g13
sg18
g13
sg19
S'/usr/share/fonts/truetype/msttcorefonts/trebucit.ttf'
p209
sg21
g22
sbag7
(g8
g9
NtRp210
(dp211
g12
g13
sg14
S'Lohit Punjabi'
p212
sg16
I400
sg17
g13
sg18
g13
sg19
S'/usr/share/fonts/truetype/ttf-punjabi-fonts/lohit_pa.ttf'
p213
sg21
g22
sbag7
(g8
g9
NtRp214
(dp215
g12
g13
sg14
S'Kinnari'
p216
sg16
I400
sg17
g13
sg18
g13
sg19
S'/usr/share/fonts/truetype/thai/Kinnari.ttf'
p217
sg21
g22
sbag7
(g8
g9
NtRp218
(dp219
g12
g13
sg14
S'Meera'
p220
sg16
I400
sg17
g13
sg18
g13
sg19
S'/usr/share/fonts/truetype/ttf-indic-fonts-core/Meera_04.ttf'
p221
sg21
g22
sbag7
(g8
g9
NtRp222
(dp223
g12
g118
sg14
S'Loma'
p224
sg16
I400
sg17
g13
sg18
g13
sg19
S'/usr/share/fonts/truetype/thai/Loma-Oblique.ttf'
p225
sg21
g22
sbag7
(g8
g9
NtRp226
(dp227
g12
g13
sg14
S'Ume P Mincho S3'
p228
sg16
I400
sg17
g13
sg18
g13
sg19
S'/usr/share/fonts/truetype/umefont/ume-pms3.ttf'
p229
sg21
g22
sbag7
(g8
g9
NtRp230
(dp231
g12
g29
sg14
S'Ubuntu'
p232
sg16
I400
sg17
g13
sg18
g13
sg19
S'/usr/share/fonts/truetype/ubuntu-font-family/Ubuntu-RI.ttf'
p233
sg21
g22
sbag7
(g8
g9
NtRp234
(dp235
g12
g13
sg14
S'Georgia'
p236
sg16
I700
sg17
g13
sg18
g13
sg19
S'/usr/share/fonts/truetype/msttcorefonts/Georgia_Bold.ttf'
p237
sg21
g22
sbag7
(g8
g9
NtRp238
(dp239
g12
g13
sg14
S'Arial Black'
p240
sg16
I900
sg17
g13
sg18
g13
sg19
S'/usr/share/fonts/truetype/msttcorefonts/ariblk.ttf'
p241
sg21
g22
sbag7
(g8
g9
NtRp242
(dp243
g12
g13
sg14
S'FreeSerif'
p244
sg16
I700
sg17
g13
sg18
g13
sg19
S'/usr/share/fonts/truetype/freefont/FreeSerifBold.ttf'
p245
sg21
g22
sbag7
(g8
g9
NtRp246
(dp247
g12
g118
sg14
S'FreeMono'
p248
sg16
I700
sg17
g13
sg18
g13
sg19
S'/usr/share/fonts/truetype/freefont/FreeMonoBoldOblique.ttf'
p249
sg21
g22
sbag7
(g8
g9
NtRp250
(dp251
g12
g118
sg14
S'Umpush'
p252
sg16
I700
sg17
g13
sg18
g13
sg19
S'/usr/share/fonts/truetype/thai/Umpush-BoldOblique.ttf'
p253
sg21
g22
sbag7
(g8
g9
NtRp254
(dp255
g12
g29
sg14
S'Liberation Mono'
p256
sg16
I400
sg17
g13
sg18
g13
sg19
S'/usr/share/fonts/truetype/ttf-liberation/LiberationMono-Italic.ttf'
p257
sg21
g22
sbag7
(g8
g9
NtRp258
(dp259
g12
g13
sg14
S'DejaVu Serif'
p260
sg16
I700
sg17
g13
sg18
g13
sg19
S'/usr/share/fonts/truetype/ttf-dejavu/DejaVuSerif-Bold.ttf'
p261
sg21
g22
sbag7
(g8
g9
NtRp262
(dp263
g12
g13
sg14
S'GFS Neohellenic'
p264
sg16
I400
sg17
g13
sg18
g13
sg19
S'/usr/share/fonts/truetype/ttf-gfs-neohellenic/GFSNeohellenic.otf'
p265
sg21
g22
sbag7
(g8
g9
NtRp266
(dp267
g12
g29
sg14
S'GFS Didot'
p268
sg16
I700
sg17
g13
sg18
g13
sg19
S'/usr/share/fonts/truetype/ttf-gfs-artemisia/GFSArtemisiaBoldIt.otf'
p269
sg21
g22
sbag7
(g8
g9
NtRp270
(dp271
g12
g13
sg14
S'Georgia'
p272
sg16
I700
sg17
g13
sg18
g13
sg19
S'/usr/share/fonts/truetype/msttcorefonts/georgiab.ttf'
p273
sg21
g22
sbag7
(g8
g9
NtRp274
(dp275
g12
g29
sg14
S'DejaVu Serif'
p276
sg16
I400
sg17
g13
sg18
g13
sg19
S'/usr/share/fonts/truetype/ttf-dejavu/DejaVuSerif-Italic.ttf'
p277
sg21
g22
sbag7
(g8
g9
NtRp278
(dp279
g12
g13
sg14
S'KacstOffice'
p280
sg16
I400
sg17
g13
sg18
g13
sg19
S'/usr/share/fonts/truetype/ttf-kacst/KacstOffice.ttf'
p281
sg21
g22
sbag7
(g8
g9
NtRp282
(dp283
g12
g118
sg14
S'FreeSans'
p284
sg16
I400
sg17
g13
sg18
g13
sg19
S'/usr/share/fonts/truetype/freefont/FreeSansOblique.ttf'
p285
sg21
g22
sbag7
(g8
g9
NtRp286
(dp287
g12
g13
sg14
S'Comic Sans MS'
p288
sg16
I700
sg17
g13
sg18
g13
sg19
S'/usr/share/fonts/truetype/msttcorefonts/Comic_Sans_MS_Bold.ttf'
p289
sg21
g22
sbag7
(g8
g9
NtRp290
(dp291
g12
g13
sg14
S'Ume Gothic S4'
p292
sg16
I400
sg17
g13
sg18
g13
sg19
S'/usr/share/fonts/truetype/umefont/ume-tgs4.ttf'
p293
sg21
g22
sbag7
(g8
g9
NtRp294
(dp295
g12
g13
sg14
S'TlwgMono'
p296
sg16
I700
sg17
g13
sg18
g13
sg19
S'/usr/share/fonts/truetype/thai/TlwgMono-Bold.ttf'
p297
sg21
g22
sbag7
(g8
g9
NtRp298
(dp299
g12
g13
sg14
S'Lohit Hindi'
p300
sg16
I400
sg17
g13
sg18
g13
sg19
S'/usr/share/fonts/truetype/ttf-indic-fonts-core/lohit_hi.ttf'
p301
sg21
g22
sbag7
(g8
g9
NtRp302
(dp303
g12
g13
sg14
S'Courier New'
p304
sg16
I700
sg17
g13
sg18
g13
sg19
S'/usr/share/fonts/truetype/msttcorefonts/Courier_New_Bold.ttf'
p305
sg21
g22
sbag7
(g8
g9
NtRp306
(dp307
g12
g29
sg14
S'Georgia'
p308
sg16
I700
sg17
g13
sg18
g13
sg19
S'/usr/share/fonts/truetype/msttcorefonts/Georgia_Bold_Italic.ttf'
p309
sg21
g22
sbag7
(g8
g9
NtRp310
(dp311
g12
g118
sg14
S'DejaVu Sans'
p312
sg16
I400
sg17
g13
sg18
g13
sg19
S'/usr/share/fonts/truetype/ttf-dejavu/DejaVuSans-Oblique.ttf'
p313
sg21
g22
sbag7
(g8
g9
NtRp314
(dp315
g12
g13
sg14
S'GFS Olga'
p316
sg16
I400
sg17
g13
sg18
g13
sg19
S'/usr/share/fonts/truetype/ttf-gfs-olga/GFSOlga.otf'
p317
sg21
g22
sbag7
(g8
g9
NtRp318
(dp319
g12
g13
sg14
S'UnDotum'
p320
sg16
I700
sg17
g13
sg18
g13
sg19
S'/usr/share/fonts/truetype/unfonts/UnDotumBold.ttf'
p321
sg21
g22
sbag7
(g8
g9
NtRp322
(dp323
g12
g13
sg14
S'Norasi'
p324
sg16
I400
sg17
g13
sg18
g13
sg19
S'/usr/share/fonts/truetype/thai/Norasi.ttf'
p325
sg21
g22
sbag7
(g8
g9
NtRp326
(dp327
g12
g13
sg14
S'Ume Gothic C4'
p328
sg16
I400
sg17
g13
sg18
g13
sg19
S'/usr/share/fonts/truetype/umefont/ume-tgc4.ttf'
p329
sg21
g22
sbag7
(g8
g9
NtRp330
(dp331
g12
g13
sg14
S'Ubuntu'
p332
sg16
I400
sg17
g13
sg18
g13
sg19
S'/usr/share/fonts/truetype/ubuntu-font-family/Ubuntu-R.ttf'
p333
sg21
g22
sbag7
(g8
g9
NtRp334
(dp335
g12
g29
sg14
S'Times New Roman'
p336
sg16
I700
sg17
g13
sg18
g13
sg19
S'/usr/share/fonts/truetype/msttcorefonts/Times_New_Roman_Bold_Italic.ttf'
p337
sg21
g22
sbag7
(g8
g9
NtRp338
(dp339
g12
g13
sg14
S'eufm10'
p340
sg16
I400
sg17
g13
sg18
g13
sg19
S'/usr/share/fonts/truetype/ttf-lyx/eufm10.ttf'
p341
sg21
g22
sbag7
(g8
g9
NtRp342
(dp343
g12
g13
sg14
S'Ume Gothic'
p344
sg16
I400
sg17
g13
sg18
g13
sg19
S'/usr/share/fonts/truetype/umefont/ume-tgo4.ttf'
p345
sg21
g22
sbag7
(g8
g9
NtRp346
(dp347
g12
g29
sg14
S'DejaVu Serif'
p348
sg16
I700
sg17
g13
sg18
g13
sg19
S'/usr/share/fonts/truetype/ttf-dejavu/DejaVuSerif-BoldItalic.ttf'
p349
sg21
g22
sbag7
(g8
g9
NtRp350
(dp351
g12
g29
sg14
S'Liberation Sans'
p352
sg16
I400
sg17
g13
sg18
g13
sg19
S'/usr/share/fonts/truetype/ttf-liberation/LiberationSans-Italic.ttf'
p353
sg21
g22
sbag7
(g8
g9
NtRp354
(dp355
g12
g13
sg14
S'wasy10'
p356
sg16
I400
sg17
g13
sg18
g13
sg19
S'/usr/share/fonts/truetype/ttf-lyx/wasy10.ttf'
p357
sg21
g22
sbag7
(g8
g9
NtRp358
(dp359
g12
g13
sg14
S'Impact'
p360
sg16
I400
sg17
g13
sg18
g13
sg19
S'/usr/share/fonts/truetype/msttcorefonts/Impact.ttf'
p361
sg21
g22
sbag7
(g8
g9
NtRp362
(dp363
g12
g118
sg14
S'DejaVu Sans'
p364
sg16
I700
sg17
g192
sg18
g13
sg19
S'/usr/share/fonts/truetype/ttf-dejavu/DejaVuSansCondensed-BoldOblique.ttf'
p365
sg21
g22
sbag7
(g8
g9
NtRp366
(dp367
g12
g13
sg14
S'Georgia'
p368
sg16
I400
sg17
g13
sg18
g13
sg19
S'/usr/share/fonts/truetype/msttcorefonts/Georgia.ttf'
p369
sg21
g22
sbag7
(g8
g9
NtRp370
(dp371
g12
g13
sg14
S'Ume P Gothic C4'
p372
sg16
I400
sg17
g13
sg18
g13
sg19
S'/usr/share/fonts/truetype/umefont/ume-pgc4.ttf'
p373
sg21
g22
sbag7
(g8
g9
NtRp374
(dp375
g12
g13
sg14
S'Sawasdee'
p376
sg16
I700
sg17
g13
sg18
g13
sg19
S'/usr/share/fonts/truetype/thai/Sawasdee-Bold.ttf'
p377
sg21
g22
sbag7
(g8
g9
NtRp378
(dp379
g12
g13
sg14
S'GFS Gazis'
p380
sg16
I400
sg17
g13
sg18
g13
sg19
S'/usr/share/fonts/truetype/ttf-gfs-gazis/GFSGazis.otf'
p381
sg21
g22
sbag7
(g8
g9
NtRp382
(dp383
g12
g13
sg14
S'msbm10'
p384
sg16
I400
sg17
g13
sg18
g13
sg19
S'/usr/share/fonts/truetype/ttf-lyx/msbm10.ttf'
p385
sg21
g22
sbag7
(g8
g9
NtRp386
(dp387
g12
g13
sg14
S'Andale Mono'
p388
sg16
I400
sg17
g13
sg18
g13
sg19
S'/usr/share/fonts/truetype/msttcorefonts/andalemo.ttf'
p389
sg21
g22
sbag7
(g8
g9
NtRp390
(dp391
g12
g13
sg14
S'Waree'
p392
sg16
I400
sg17
g13
sg18
g13
sg19
S'/usr/share/fonts/truetype/thai/Waree.ttf'
p393
sg21
g22
sbag7
(g8
g9
NtRp394
(dp395
g12
g13
sg14
S'Ume Mincho S3'
p396
sg16
I400
sg17
g13
sg18
g13
sg19
S'/usr/share/fonts/truetype/umefont/ume-tms3.ttf'
p397
sg21
g22
sbag7
(g8
g9
NtRp398
(dp399
g12
g29
sg14
S'Arial'
p400
sg16
I700
sg17
g13
sg18
g13
sg19
S'/usr/share/fonts/truetype/msttcorefonts/arialbi.ttf'
p401
sg21
g22
sbag7
(g8
g9
NtRp402
(dp403
g12
g13
sg14
S'Ume P Gothic O5'
p404
sg16
I400
sg17
g13
sg18
g13
sg19
S'/usr/share/fonts/truetype/umefont/ume-pgo5.ttf'
p405
sg21
g22
sbag7
(g8
g9
NtRp406
(dp407
g12
g118
sg14
S'DejaVu Sans Mono'
p408
sg16
I700
sg17
g13
sg18
g13
sg19
S'/usr/share/fonts/truetype/ttf-dejavu/DejaVuSansMono-BoldOblique.ttf'
p409
sg21
g22
sbag7
(g8
g9
NtRp410
(dp411
g12
g13
sg14
S'Verdana'
p412
sg16
I400
sg17
g13
sg18
g13
sg19
S'/usr/share/fonts/truetype/msttcorefonts/Verdana.ttf'
p413
sg21
g22
sbag7
(g8
g9
NtRp414
(dp415
g12
g13
sg14
S'DejaVu Sans Mono'
p416
sg16
I700
sg17
g13
sg18
g13
sg19
S'/usr/share/fonts/truetype/ttf-dejavu/DejaVuSansMono-Bold.ttf'
p417
sg21
g22
sbag7
(g8
g9
NtRp418
(dp419
g12
g13
sg14
S'GFS Baskerville'
p420
sg16
I400
sg17
g13
sg18
g13
sg19
S'/usr/share/fonts/truetype/ttf-gfs-baskerville/GFSBaskerville.otf'
p421
sg21
g22
sbag7
(g8
g9
NtRp422
(dp423
g12
g13
sg14
S'KacstBook'
p424
sg16
I400
sg17
g13
sg18
g13
sg19
S'/usr/share/fonts/truetype/ttf-kacst/KacstBook.ttf'
p425
sg21
g22
sbag7
(g8
g9
NtRp426
(dp427
g12
g118
sg14
S'Sawasdee'
p428
sg16
I700
sg17
g13
sg18
g13
sg19
S'/usr/share/fonts/truetype/thai/Sawasdee-BoldOblique.ttf'
p429
sg21
g22
sbag7
(g8
g9
NtRp430
(dp431
g12
g29
sg14
S'Courier New'
p432
sg16
I400
sg17
g13
sg18
g13
sg19
S'/usr/share/fonts/truetype/msttcorefonts/Courier_New_Italic.ttf'
p433
sg21
g22
sbag7
(g8
g9
NtRp434
(dp435
g12
g118
sg14
S'Waree'
p436
sg16
I700
sg17
g13
sg18
g13
sg19
S'/usr/share/fonts/truetype/thai/Waree-BoldOblique.ttf'
p437
sg21
g22
sbag7
(g8
g9
NtRp438
(dp439
g12
g13
sg14
S'TlwgTypewriter'
p440
sg16
I400
sg17
g13
sg18
g13
sg19
S'/usr/share/fonts/truetype/thai/TlwgTypewriter.ttf'
p441
sg21
g22
sbag7
(g8
g9
NtRp442
(dp443
g12
g118
sg14
S'DejaVu Sans'
p444
sg16
I400
sg17
g192
sg18
g13
sg19
S'/usr/share/fonts/truetype/ttf-dejavu/DejaVuSansCondensed-Oblique.ttf'
p445
sg21
g22
sbag7
(g8
g9
NtRp446
(dp447
g12
g13
sg14
S'Courier New'
p448
sg16
I400
sg17
g13
sg18
g13
sg19
S'/usr/share/fonts/truetype/msttcorefonts/cour.ttf'
p449
sg21
g22
sbag7
(g8
g9
NtRp450
(dp451
g12
g13
sg14
S'Gentium'
p452
sg16
I400
sg17
g13
sg18
g13
sg19
S'/usr/share/fonts/truetype/ttf-sil-gentium/GenR102.ttf'
p453
sg21
g22
sbag7
(g8
g9
NtRp454
(dp455
g12
g13
sg14
S'ori1Uni'
p456
sg16
I500
sg17
g13
sg18
g13
sg19
S'/usr/share/fonts/truetype/ttf-indic-fonts-core/utkal.ttf'
p457
sg21
g22
sbag7
(g8
g9
NtRp458
(dp459
g12
g118
sg14
S'Garuda'
p460
sg16
I700
sg17
g13
sg18
g13
sg19
S'/usr/share/fonts/truetype/thai/Garuda-BoldOblique.ttf'
p461
sg21
g22
sbag7
(g8
g9
NtRp462
(dp463
g12
g13
sg14
S'GFS Didot'
p464
sg16
I400
sg17
g13
sg18
g13
sg19
S'/usr/share/fonts/truetype/ttf-gfs-didot/GFSDidot.otf'
p465
sg21
g22
sbag7
(g8
g9
NtRp466
(dp467
g12
g13
sg14
S'Courier New'
p468
sg16
I700
sg17
g13
sg18
g13
sg19
S'/usr/share/fonts/truetype/msttcorefonts/courbd.ttf'
p469
sg21
g22
sbag7
(g8
g9
NtRp470
(dp471
g12
g13
sg14
S'VL Gothic'
p472
sg16
I400
sg17
g13
sg18
g13
sg19
S'/usr/share/fonts/truetype/vlgothic/VL-Gothic-Regular.ttf'
p473
sg21
g22
sbag7
(g8
g9
NtRp474
(dp475
g12
g13
sg14
S'Trebuchet MS'
p476
sg16
I400
sg17
g13
sg18
g13
sg19
S'/usr/share/fonts/truetype/msttcorefonts/Trebuchet_MS.ttf'
p477
sg21
g22
sbag7
(g8
g9
NtRp478
(dp479
g12
g118
sg14
S'TlwgMono'
p480
sg16
I700
sg17
g13
sg18
g13
sg19
S'/usr/share/fonts/truetype/thai/TlwgMono-BoldOblique.ttf'
p481
sg21
g22
sbag7
(g8
g9
NtRp482
(dp483
g12
g118
sg14
S'Tlwg Typist'
p484
sg16
I400
sg17
g13
sg18
g13
sg19
S'/usr/share/fonts/truetype/thai/TlwgTypist-Oblique.ttf'
p485
sg21
g22
sbag7
(g8
g9
NtRp486
(dp487
g12
g13
sg14
S'VL PGothic'
p488
sg16
I400
sg17
g13
sg18
g13
sg19
S'/usr/share/fonts/truetype/vlgothic/VL-PGothic-Regular.ttf'
p489
sg21
g22
sbag7
(g8
g9
NtRp490
(dp491
g12
g13
sg14
S'Kedage'
p492
sg16
I700
sg17
g13
sg18
g13
sg19
S'/usr/share/fonts/truetype/ttf-indic-fonts-core/Kedage-b.ttf'
p493
sg21
g22
sbag7
(g8
g9
NtRp494
(dp495
g12
g13
sg14
S'DejaVu Serif'
p496
sg16
I700
sg17
g192
sg18
g13
sg19
S'/usr/share/fonts/truetype/ttf-dejavu/DejaVuSerifCondensed-Bold.ttf'
p497
sg21
g22
sbag7
(g8
g9
NtRp498
(dp499
g12
g13
sg14
S'KacstOne'
p500
sg16
I400
sg17
g13
sg18
g13
sg19
S'/usr/share/fonts/truetype/ttf-kacst-one/KacstOne.ttf'
p501
sg21
g22
sbag7
(g8
g9
NtRp502
(dp503
g12
g29
sg14
S'Trebuchet MS'
p504
sg16
I400
sg17
g13
sg18
g13
sg19
S'/usr/share/fonts/truetype/msttcorefonts/Trebuchet_MS_Italic.ttf'
p505
sg21
g22
sbag7
(g8
g9
NtRp506
(dp507
g12
g13
sg14
S'Liberation Serif'
p508
sg16
I700
sg17
g13
sg18
g13
sg19
S'/usr/share/fonts/truetype/ttf-liberation/LiberationSerif-Bold.ttf'
p509
sg21
g22
sbag7
(g8
g9
NtRp510
(dp511
g12
g13
sg14
S'Courier New'
p512
sg16
I400
sg17
g13
sg18
g13
sg19
S'/usr/share/fonts/truetype/msttcorefonts/Courier_New.ttf'
p513
sg21
g22
sbag7
(g8
g9
NtRp514
(dp515
g12
g13
sg14
S'Comic Sans MS'
p516
sg16
I700
sg17
g13
sg18
g13
sg19
S'/usr/share/fonts/truetype/msttcorefonts/comicbd.ttf'
p517
sg21
g22
sbag7
(g8
g9
NtRp518
(dp519
g12
g13
sg14
S'Tlwg Typist'
p520
sg16
I700
sg17
g13
sg18
g13
sg19
S'/usr/share/fonts/truetype/thai/TlwgTypist-Bold.ttf'
p521
sg21
g22
sbag7
(g8
g9
NtRp522
(dp523
g12
g13
sg14
S'Liberation Sans'
p524
sg16
I400
sg17
g13
sg18
g13
sg19
S'/usr/share/fonts/truetype/ttf-liberation/LiberationSans-Regular.ttf'
p525
sg21
g22
sbag7
(g8
g9
NtRp526
(dp527
g12
g29
sg14
S'GFS Neohellenic'
p528
sg16
I400
sg17
g13
sg18
g13
sg19
S'/usr/share/fonts/truetype/ttf-gfs-neohellenic/GFSNeohellenicIt.otf'
p529
sg21
g22
sbag7
(g8
g9
NtRp530
(dp531
g12
g13
sg14
S'Arial'
p532
sg16
I400
sg17
g13
sg18
g13
sg19
S'/usr/share/fonts/truetype/msttcorefonts/Arial.ttf'
p533
sg21
g22
sbag7
(g8
g9
NtRp534
(dp535
g12
g29
sg14
S'Liberation Mono'
p536
sg16
I700
sg17
g13
sg18
g13
sg19
S'/usr/share/fonts/truetype/ttf-liberation/LiberationMono-BoldItalic.ttf'
p537
sg21
g22
sbag7
(g8
g9
NtRp538
(dp539
g12
g13
sg14
S'Ume P Gothic C5'
p540
sg16
I400
sg17
g13
sg18
g13
sg19
S'/usr/share/fonts/truetype/umefont/ume-pgc5.ttf'
p541
sg21
g22
sbag7
(g8
g9
NtRp542
(dp543
g12
g13
sg14
S'KacstDigital'
p544
sg16
I400
sg17
g13
sg18
g13
sg19
S'/usr/share/fonts/truetype/ttf-kacst/KacstDigital.ttf'
p545
sg21
g22
sbag7
(g8
g9
NtRp546
(dp547
g12
g29
sg14
S'Courier New'
p548
sg16
I700
sg17
g13
sg18
g13
sg19
S'/usr/share/fonts/truetype/msttcorefonts/courbi.ttf'
p549
sg21
g22
sbag7
(g8
g9
NtRp550
(dp551
g12
g13
sg14
S'Times New Roman'
p552
sg16
I500
sg17
g13
sg18
g13
sg19
S'/usr/share/fonts/truetype/msttcorefonts/times.ttf'
p553
sg21
g22
sbag7
(g8
g9
NtRp554
(dp555
g12
g13
sg14
S'KacstPoster'
p556
sg16
I400
sg17
g13
sg18
g13
sg19
S'/usr/share/fonts/truetype/ttf-kacst/KacstPoster.ttf'
p557
sg21
g22
sbag7
(g8
g9
NtRp558
(dp559
g12
g13
sg14
S'DejaVu Sans'
p560
sg16
I700
sg17
g192
sg18
g13
sg19
S'/usr/share/fonts/truetype/ttf-dejavu/DejaVuSansCondensed-Bold.ttf'
p561
sg21
g22
sbag7
(g8
g9
NtRp562
(dp563
g12
g29
sg14
S'Verdana'
p564
sg16
I400
sg17
g13
sg18
g13
sg19
S'/usr/share/fonts/truetype/msttcorefonts/Verdana_Italic.ttf'
p565
sg21
g22
sbag7
(g8
g9
NtRp566
(dp567
g12
g29
sg14
S'Liberation Sans'
p568
sg16
I700
sg17
g13
sg18
g13
sg19
S'/usr/share/fonts/truetype/ttf-liberation/LiberationSans-BoldItalic.ttf'
p569
sg21
g22
sbag7
(g8
g9
NtRp570
(dp571
g12
g13
sg14
S'GentiumAlt'
p572
sg16
I400
sg17
g13
sg18
g13
sg19
S'/usr/share/fonts/truetype/ttf-sil-gentium/GenAR102.ttf'
p573
sg21
g22
sbag7
(g8
g9
NtRp574
(dp575
g12
g13
sg14
S'Mallige'
p576
sg16
I400
sg17
g13
sg18
g13
sg19
S'/usr/share/fonts/truetype/ttf-indic-fonts-core/Malige-n.ttf'
p577
sg21
g22
sbag7
(g8
g9
NtRp578
(dp579
g12
g13
sg14
S'Georgia'
p580
sg16
I400
sg17
g13
sg18
g13
sg19
S'/usr/share/fonts/truetype/msttcorefonts/georgia.ttf'
p581
sg21
g22
sbag7
(g8
g9
NtRp582
(dp583
g12
g13
sg14
S'KacstQurn'
p584
sg16
I400
sg17
g13
sg18
g13
sg19
S'/usr/share/fonts/truetype/ttf-kacst/KacstQurn.ttf'
p585
sg21
g22
sbag7
(g8
g9
NtRp586
(dp587
g12
g29
sg14
S'Liberation Serif'
p588
sg16
I400
sg17
g13
sg18
g13
sg19
S'/usr/share/fonts/truetype/ttf-liberation/LiberationSerif-Italic.ttf'
p589
sg21
g22
sbag7
(g8
g9
NtRp590
(dp591
g12
g13
sg14
S'Trebuchet MS'
p592
sg16
I400
sg17
g13
sg18
g13
sg19
S'/usr/share/fonts/truetype/msttcorefonts/trebuc.ttf'
p593
sg21
g22
sbag7
(g8
g9
NtRp594
(dp595
g12
g29
sg14
S'DejaVu Serif'
p596
sg16
I700
sg17
g192
sg18
g13
sg19
S'/usr/share/fonts/truetype/ttf-dejavu/DejaVuSerifCondensed-BoldItalic.ttf'
p597
sg21
g22
sbag7
(g8
g9
NtRp598
(dp599
g12
g13
sg14
S'FreeSans'
p600
sg16
I700
sg17
g13
sg18
g13
sg19
S'/usr/share/fonts/truetype/freefont/FreeSansBold.ttf'
p601
sg21
g22
sbag7
(g8
g9
NtRp602
(dp603
g12
g13
sg14
S'Loma'
p604
sg16
I700
sg17
g13
sg18
g13
sg19
S'/usr/share/fonts/truetype/thai/Loma-Bold.ttf'
p605
sg21
g22
sbag7
(g8
g9
NtRp606
(dp607
g12
g13
sg14
S'Tlwg Typo'
p608
sg16
I400
sg17
g13
sg18
g13
sg19
S'/usr/share/fonts/truetype/thai/TlwgTypo.ttf'
p609
sg21
g22
sbag7
(g8
g9
NtRp610
(dp611
g12
g13
sg14
S'Droid Sans'
p612
sg16
I400
sg17
g13
sg18
g13
sg19
S'/usr/share/fonts/truetype/ttf-droid/DroidSans.ttf'
p613
sg21
g22
sbag7
(g8
g9
NtRp614
(dp615
g12
g13
sg14
S'Sawasdee'
p616
sg16
I400
sg17
g13
sg18
g13
sg19
S'/usr/share/fonts/truetype/thai/Sawasdee.ttf'
p617
sg21
g22
sbag7
(g8
g9
NtRp618
(dp619
g12
g13
sg14
S'Droid Sans Mono'
p620
sg16
I400
sg17
g13
sg18
g13
sg19
S'/usr/share/fonts/truetype/ttf-droid/DroidSansMono.ttf'
p621
sg21
g22
sbag7
(g8
g9
NtRp622
(dp623
g12
g29
sg14
S'Droid Serif'
p624
sg16
I700
sg17
g13
sg18
g13
sg19
S'/usr/share/fonts/truetype/ttf-droid/DroidSerif-BoldItalic.ttf'
p625
sg21
g22
sbag7
(g8
g9
NtRp626
(dp627
g12
g13
sg14
S'Verdana'
p628
sg16
I400
sg17
g13
sg18
g13
sg19
S'/usr/share/fonts/truetype/msttcorefonts/verdana.ttf'
p629
sg21
g22
sbag7
(g8
g9
NtRp630
(dp631
g12
g29
sg14
S'Verdana'
p632
sg16
I700
sg17
g13
sg18
g13
sg19
S'/usr/share/fonts/truetype/msttcorefonts/verdanaz.ttf'
p633
sg21
g22
sbag7
(g8
g9
NtRp634
(dp635
g12
g13
sg14
S'KacstTitle'
p636
sg16
I400
sg17
g13
sg18
g13
sg19
S'/usr/share/fonts/truetype/ttf-kacst/KacstTitle.ttf'
p637
sg21
g22
sbag7
(g8
g9
NtRp638
(dp639
g12
g13
sg14
S'GFS Neohellenic'
p640
sg16
I700
sg17
g13
sg18
g13
sg19
S'/usr/share/fonts/truetype/ttf-gfs-neohellenic/GFSNeohellenicBold.otf'
p641
sg21
g22
sbag7
(g8
g9
NtRp642
(dp643
g12
g13
sg14
S'Saab'
p644
sg16
I400
sg17
g13
sg18
g13
sg19
S'/usr/share/fonts/truetype/ttf-punjabi-fonts/Saab.ttf'
p645
sg21
g22
sbag7
(g8
g9
NtRp646
(dp647
g12
g13
sg14
S'DejaVu Sans'
p648
sg16
I700
sg17
g13
sg18
g13
sg19
S'/usr/share/fonts/truetype/ttf-dejavu/DejaVuSans-Bold.ttf'
p649
sg21
g22
sbag7
(g8
g9
NtRp650
(dp651
g12
g13
sg14
S'KacstNaskh'
p652
sg16
I400
sg17
g13
sg18
g13
sg19
S'/usr/share/fonts/truetype/ttf-kacst/KacstNaskh.ttf'
p653
sg21
g22
sbag7
(g8
g9
NtRp654
(dp655
g12
g13
sg14
S'Garuda'
p656
sg16
I400
sg17
g13
sg18
g13
sg19
S'/usr/share/fonts/truetype/thai/Garuda.ttf'
p657
sg21
g22
sbag7
(g8
g9
NtRp658
(dp659
g12
g29
sg14
S'GFS Didot'
p660
sg16
I400
sg17
g13
sg18
g13
sg19
S'/usr/share/fonts/truetype/ttf-gfs-didot/GFSDidotItalic.otf'
p661
sg21
g22
sbag7
(g8
g9
NtRp662
(dp663
g12
g13
sg14
S'Verdana'
p664
sg16
I700
sg17
g13
sg18
g13
sg19
S'/usr/share/fonts/truetype/msttcorefonts/Verdana_Bold.ttf'
p665
sg21
g22
sbag7
(g8
g9
NtRp666
(dp667
g12
g13
sg14
S'Phetsarath OT'
p668
sg16
I400
sg17
g13
sg18
g13
sg19
S'/usr/share/fonts/truetype/ttf-lao/Phetsarath_OT.ttf'
p669
sg21
g22
sbag7
(g8
g9
NtRp670
(dp671
g12
g13
sg14
S'GFS Didot Classic'
p672
sg16
I400
sg17
g13
sg18
g13
sg19
S'/usr/share/fonts/truetype/ttf-gfs-didot-classic/GFSDidotClassic.otf'
p673
sg21
g22
sbag7
(g8
g9
NtRp674
(dp675
g12
g29
sg14
S'Georgia'
p676
sg16
I400
sg17
g13
sg18
g13
sg19
S'/usr/share/fonts/truetype/msttcorefonts/georgiai.ttf'
p677
sg21
g22
sbag7
(g8
g9
NtRp678
(dp679
g12
g13
sg14
S'Andale Mono'
p680
sg16
I400
sg17
g13
sg18
g13
sg19
S'/usr/share/fonts/truetype/msttcorefonts/Andale_Mono.ttf'
p681
sg21
g22
sbag7
(g8
g9
NtRp682
(dp683
g12
g29
sg14
S'Georgia'
p684
sg16
I400
sg17
g13
sg18
g13
sg19
S'/usr/share/fonts/truetype/msttcorefonts/Georgia_Italic.ttf'
p685
sg21
g22
sbag7
(g8
g9
NtRp686
(dp687
g12
g29
sg14
S'Ubuntu'
p688
sg16
I200
sg17
g13
sg18
g13
sg19
S'/usr/share/fonts/truetype/ubuntu-font-family/Ubuntu-LI.ttf'
p689
sg21
g22
sbag7
(g8
g9
NtRp690
(dp691
g12
g13
sg14
S'Ume UI Gothic O5'
p692
sg16
I400
sg17
g13
sg18
g13
sg19
S'/usr/share/fonts/truetype/umefont/ume-ugo5.ttf'
p693
sg21
g22
sbag7
(g8
g9
NtRp694
(dp695
g12
g118
sg14
S'TlwgTypewriter'
p696
sg16
I700
sg17
g13
sg18
g13
sg19
S'/usr/share/fonts/truetype/thai/TlwgTypewriter-BoldOblique.ttf'
p697
sg21
g22
sbag7
(g8
g9
NtRp698
(dp699
g12
g13
sg14
S'Garuda'
p700
sg16
I700
sg17
g13
sg18
g13
sg19
S'/usr/share/fonts/truetype/thai/Garuda-Bold.ttf'
p701
sg21
g22
sbag7
(g8
g9
NtRp702
(dp703
g12
g13
sg14
S'Droid Serif'
p704
sg16
I400
sg17
g13
sg18
g13
sg19
S'/usr/share/fonts/truetype/ttf-droid/DroidSerif-Regular.ttf'
p705
sg21
g22
sbag7
(g8
g9
NtRp706
(dp707
g12
g13
sg14
S'Loma'
p708
sg16
I400
sg17
g13
sg18
g13
sg19
S'/usr/share/fonts/truetype/thai/Loma.ttf'
p709
sg21
g22
sbag7
(g8
g9
NtRp710
(dp711
g12
g13
sg14
S'Ume Mincho'
p712
sg16
I400
sg17
g13
sg18
g13
sg19
S'/usr/share/fonts/truetype/umefont/ume-tmo3.ttf'
p713
sg21
g22
sbag7
(g8
g9
NtRp714
(dp715
g12
g118
sg14
S'Umpush'
p716
sg16
I200
sg17
g13
sg18
g13
sg19
S'/usr/share/fonts/truetype/thai/Umpush-LightOblique.ttf'
p717
sg21
g22
sbag7
(g8
g9
NtRp718
(dp719
g12
g13
sg14
S'KacstLetter'
p720
sg16
I400
sg17
g13
sg18
g13
sg19
S'/usr/share/fonts/truetype/ttf-kacst/KacstLetter.ttf'
p721
sg21
g22
sbag7
(g8
g9
NtRp722
(dp723
g12
g29
sg14
S'Courier New'
p724
sg16
I400
sg17
g13
sg18
g13
sg19
S'/usr/share/fonts/truetype/msttcorefonts/couri.ttf'
p725
sg21
g22
sbag7
(g8
g9
NtRp726
(dp727
g12
g13
sg14
S'Rekha'
p728
sg16
I400
sg17
g13
sg18
g13
sg19
S'/usr/share/fonts/truetype/ttf-indic-fonts-core/Rekha.ttf'
p729
sg21
g22
sbag7
(g8
g9
NtRp730
(dp731
g12
g13
sg14
S'Kinnari'
p732
sg16
I700
sg17
g13
sg18
g13
sg19
S'/usr/share/fonts/truetype/thai/Kinnari-Bold.ttf'
p733
sg21
g22
sbag7
(g8
g9
NtRp734
(dp735
g12
g13
sg14
S'GFS Theokritos'
p736
sg16
I400
sg17
g13
sg18
g13
sg19
S'/usr/share/fonts/truetype/ttf-gfs-theokritos/GFSTheokritos.otf'
p737
sg21
g22
sbag7
(g8
g9
NtRp738
(dp739
g12
g13
sg14
S'DejaVu Sans'
p740
sg16
I400
sg17
g13
sg18
g13
sg19
S'/usr/share/fonts/truetype/ttf-dejavu/DejaVuSans.ttf'
p741
sg21
g22
sbag7
(g8
g9
NtRp742
(dp743
g12
g29
sg14
S'GFS Neohellenic'
p744
sg16
I700
sg17
g13
sg18
g13
sg19
S'/usr/share/fonts/truetype/ttf-gfs-neohellenic/GFSNeohellenicBoldIt.otf'
p745
sg21
g22
sbag7
(g8
g9
NtRp746
(dp747
g12
g13
sg14
S'esint10'
p748
sg16
I400
sg17
g13
sg18
g13
sg19
S'/usr/share/fonts/truetype/ttf-lyx/esint10.ttf'
p749
sg21
g22
sbag7
(g8
g9
NtRp750
(dp751
g12
g13
sg14
S'DejaVu Sans Mono'
p752
sg16
I400
sg17
g13
sg18
g13
sg19
S'/usr/share/fonts/truetype/ttf-dejavu/DejaVuSansMono.ttf'
p753
sg21
g22
sbag7
(g8
g9
NtRp754
(dp755
g12
g13
sg14
S'GFS Artemisia'
p756
sg16
I400
sg17
g13
sg18
g13
sg19
S'/usr/share/fonts/truetype/ttf-gfs-artemisia/GFSArtemisia.otf'
p757
sg21
g22
sbag7
(g8
g9
NtRp758
(dp759
g12
g13
sg14
S'Ume Gothic C5'
p760
sg16
I400
sg17
g13
sg18
g13
sg19
S'/usr/share/fonts/truetype/umefont/ume-tgc5.ttf'
p761
sg21
g22
sbag7
(g8
g9
NtRp762
(dp763
g12
g13
sg14
S'TlwgMono'
p764
sg16
I400
sg17
g13
sg18
g13
sg19
S'/usr/share/fonts/truetype/thai/TlwgMono.ttf'
p765
sg21
g22
sbag7
(g8
g9
NtRp766
(dp767
g12
g13
sg14
S'KacstDecorative'
p768
sg16
I400
sg17
g13
sg18
g13
sg19
S'/usr/share/fonts/truetype/ttf-kacst/KacstDecorative.ttf'
p769
sg21
g22
sbag7
(g8
g9
NtRp770
(dp771
g12
g29
sg14
S'Verdana'
p772
sg16
I700
sg17
g13
sg18
g13
sg19
S'/usr/share/fonts/truetype/msttcorefonts/Verdana_Bold_Italic.ttf'
p773
sg21
g22
sbag7
(g8
g9
NtRp774
(dp775
g12
g13
sg14
S'UnBatang'
p776
sg16
I400
sg17
g13
sg18
g13
sg19
S'/usr/share/fonts/truetype/unfonts/UnBatang.ttf'
p777
sg21
g22
sbag7
(g8
g9
NtRp778
(dp779
g12
g13
sg14
S'gargi'
p780
sg16
I400
sg17
g13
sg18
g13
sg19
S'/usr/share/fonts/truetype/ttf-indic-fonts-core/gargi.ttf'
p781
sg21
g22
sbag7
(g8
g9
NtRp782
(dp783
g12
g13
sg14
S'GFS BodoniClassic'
p784
sg16
I400
sg17
g13
sg18
g13
sg19
S'/usr/share/fonts/truetype/ttf-gfs-bodoni-classic/GFSBodoniClassic.otf'
p785
sg21
g22
sbag7
(g8
g9
NtRp786
(dp787
g12
g29
sg14
S'Ubuntu'
p788
sg16
I700
sg17
g13
sg18
g13
sg19
S'/usr/share/fonts/truetype/ubuntu-font-family/Ubuntu-BI.ttf'
p789
sg21
g22
sbag7
(g8
g9
NtRp790
(dp791
g12
g13
sg14
S'KacstPen'
p792
sg16
I400
sg17
g13
sg18
g13
sg19
S'/usr/share/fonts/truetype/ttf-kacst/KacstPen.ttf'
p793
sg21
g22
sbag7
(g8
g9
NtRp794
(dp795
g12
g13
sg14
S'Khmer OS System'
p796
sg16
I400
sg17
g13
sg18
g13
sg19
S'/usr/share/fonts/truetype/ttf-khmeros-core/KhmerOSsys.ttf'
p797
sg21
g22
sbag7
(g8
g9
NtRp798
(dp799
g12
g29
sg14
S'Kinnari'
p800
sg16
I400
sg17
g13
sg18
g13
sg19
S'/usr/share/fonts/truetype/thai/Kinnari-Italic.ttf'
p801
sg21
g22
sbag7
(g8
g9
NtRp802
(dp803
g12
g13
sg14
S'Ume UI Gothic'
p804
sg16
I400
sg17
g13
sg18
g13
sg19
S'/usr/share/fonts/truetype/umefont/ume-ugo4.ttf'
p805
sg21
g22
sbag7
(g8
g9
NtRp806
(dp807
g12
g13
sg14
S'Arial Black'
p808
sg16
I900
sg17
g13
sg18
g13
sg19
S'/usr/share/fonts/truetype/msttcorefonts/Arial_Black.ttf'
p809
sg21
g22
sbag7
(g8
g9
NtRp810
(dp811
g12
g13
sg14
S'TakaoPGothic'
p812
sg16
I400
sg17
g13
sg18
g13
sg19
S'/usr/share/fonts/truetype/takao/TakaoPGothic.ttf'
p813
sg21
g22
sbag7
(g8
g9
NtRp814
(dp815
g12
g13
sg14
S'Mukti Narrow'
p816
sg16
I700
sg17
g13
sg18
g13
sg19
S'/usr/share/fonts/truetype/ttf-indic-fonts-core/MuktiNarrowBold.ttf'
p817
sg21
g22
sbag7
(g8
g9
NtRp818
(dp819
g12
g13
sg14
S'DejaVu Serif'
p820
sg16
I400
sg17
g13
sg18
g13
sg19
S'/usr/share/fonts/truetype/ttf-dejavu/DejaVuSerif.ttf'
p821
sg21
g22
sbag7
(g8
g9
NtRp822
(dp823
g12
g13
sg14
S'UnDotum'
p824
sg16
I400
sg17
g13
sg18
g13
sg19
S'/usr/share/fonts/truetype/unfonts/UnDotum.ttf'
p825
sg21
g22
sbag7
(g8
g9
NtRp826
(dp827
g12
g29
sg14
S'Kinnari'
p828
sg16
I700
sg17
g13
sg18
g13
sg19
S'/usr/share/fonts/truetype/thai/Kinnari-BoldItalic.ttf'
p829
sg21
g22
sbag7
(g8
g9
NtRp830
(dp831
g12
g13
sg14
S'Ubuntu'
p832
sg16
I700
sg17
g13
sg18
g13
sg19
S'/usr/share/fonts/truetype/ubuntu-font-family/Ubuntu-B.ttf'
p833
sg21
g22
sbag7
(g8
g9
NtRp834
(dp835
g12
g118
sg14
S'FreeSans'
p836
sg16
I700
sg17
g13
sg18
g13
sg19
S'/usr/share/fonts/truetype/freefont/FreeSansBoldOblique.ttf'
p837
sg21
g22
sbag7
(g8
g9
NtRp838
(dp839
g12
g13
sg14
S'Droid Serif'
p840
sg16
I700
sg17
g13
sg18
g13
sg19
S'/usr/share/fonts/truetype/ttf-droid/DroidSerif-Bold.ttf'
p841
sg21
g22
sbag7
(g8
g9
NtRp842
(dp843
g12
g118
sg14
S'DejaVu Sans'
p844
sg16
I700
sg17
g13
sg18
g13
sg19
S'/usr/share/fonts/truetype/ttf-dejavu/DejaVuSans-BoldOblique.ttf'
p845
sg21
g22
sbag7
(g8
g9
NtRp846
(dp847
g12
g13
sg14
S'Ume P Mincho'
p848
sg16
I400
sg17
g13
sg18
g13
sg19
S'/usr/share/fonts/truetype/umefont/ume-pmo3.ttf'
p849
sg21
g22
sbag7
(g8
g9
NtRp850
(dp851
g12
g13
sg14
S'Purisa'
p852
sg16
I400
sg17
g13
sg18
g13
sg19
S'/usr/share/fonts/truetype/thai/Purisa.ttf'
p853
sg21
g22
sbag7
(g8
g9
NtRp854
(dp855
g12
g118
sg14
S'TlwgMono'
p856
sg16
I400
sg17
g13
sg18
g13
sg19
S'/usr/share/fonts/truetype/thai/TlwgMono-Oblique.ttf'
p857
sg21
g22
sbag7
(g8
g9
NtRp858
(dp859
g12
g29
sg14
S'Arial'
p860
sg16
I400
sg17
g13
sg18
g13
sg19
S'/usr/share/fonts/truetype/msttcorefonts/Arial_Italic.ttf'
p861
sg21
g22
sbag7
(g8
g9
NtRp862
(dp863
g12
g29
sg14
S'GFS Didot'
p864
sg16
I700
sg17
g13
sg18
g13
sg19
S'/usr/share/fonts/truetype/ttf-gfs-didot/GFSDidotBoldItalic.otf'
p865
sg21
g22
sbag7
(g8
g9
NtRp866
(dp867
g12
g13
sg14
S'Tlwg Typist'
p868
sg16
I400
sg17
g13
sg18
g13
sg19
S'/usr/share/fonts/truetype/thai/TlwgTypist.ttf'
p869
sg21
g22
sbag7
(g8
g9
NtRp870
(dp871
g12
g13
sg14
S'GFS Porson'
p872
sg16
I400
sg17
g13
sg18
g13
sg19
S'/usr/share/fonts/truetype/ttf-gfs-porson/GFSPorson.otf'
p873
sg21
g22
sbag7
(g8
g9
NtRp874
(dp875
g12
g118
sg14
S'Norasi'
p876
sg16
I400
sg17
g13
sg18
g13
sg19
S'/usr/share/fonts/truetype/thai/Norasi-Oblique.ttf'
p877
sg21
g22
sbag7
(g8
g9
NtRp878
(dp879
g12
g118
sg14
S'Kinnari'
p880
sg16
I400
sg17
g13
sg18
g13
sg19
S'/usr/share/fonts/truetype/thai/Kinnari-Oblique.ttf'
p881
sg21
g22
sbag7
(g8
g9
NtRp882
(dp883
g12
g13
sg14
S'GFS Didot'
p884
sg16
I700
sg17
g13
sg18
g13
sg19
S'/usr/share/fonts/truetype/ttf-gfs-didot/GFSDidotBold.otf'
p885
sg21
g22
sbag7
(g8
g9
NtRp886
(dp887
g12
g29
sg14
S'Arial'
p888
sg16
I400
sg17
g13
sg18
g13
sg19
S'/usr/share/fonts/truetype/msttcorefonts/ariali.ttf'
p889
sg21
g22
sbag7
(g8
g9
NtRp890
(dp891
g12
g13
sg14
S'Droid Sans Japanese'
p892
sg16
I400
sg17
g13
sg18
g13
sg19
S'/usr/share/fonts/truetype/ttf-droid/DroidSansJapanese.ttf'
p893
sg21
g22
sbag7
(g8
g9
NtRp894
(dp895
g12
g29
sg14
S'FreeSerif'
p896
sg16
I700
sg17
g13
sg18
g13
sg19
S'/usr/share/fonts/truetype/freefont/FreeSerifBoldItalic.ttf'
p897
sg21
g22
sbag7
(g8
g9
NtRp898
(dp899
g12
g13
sg14
S'Lohit Bengali'
p900
sg16
I400
sg17
g13
sg18
g13
sg19
S'/usr/share/fonts/truetype/ttf-indic-fonts-core/lohit_bn.ttf'
p901
sg21
g22
sbag7
(g8
g9
NtRp902
(dp903
g12
g29
sg14
S'Trebuchet MS'
p904
sg16
I700
sg17
g13
sg18
g13
sg19
S'/usr/share/fonts/truetype/msttcorefonts/trebucbi.ttf'
p905
sg21
g22
sbag7
(g8
g9
NtRp906
(dp907
g12
g13
sg14
S'Droid Sans'
p908
sg16
I700
sg17
g13
sg18
g13
sg19
S'/usr/share/fonts/truetype/ttf-droid/DroidSans-Bold.ttf'
p909
sg21
g22
sbag7
(g8
g9
NtRp910
(dp911
g12
g13
sg14
S'Vemana2000'
p912
sg16
I400
sg17
g13
sg18
g13
sg19
S'/usr/share/fonts/truetype/ttf-indic-fonts-core/Vemana.ttf'
p913
sg21
g22
sbag7
(g8
g9
NtRp914
(dp915
g12
g13
sg14
S'FreeMono'
p916
sg16
I400
sg17
g13
sg18
g13
sg19
S'/usr/share/fonts/truetype/freefont/FreeMono.ttf'
p917
sg21
g22
sbag7
(g8
g9
NtRp918
(dp919
g12
g13
sg14
S'Waree'
p920
sg16
I700
sg17
g13
sg18
g13
sg19
S'/usr/share/fonts/truetype/thai/Waree-Bold.ttf'
p921
sg21
g22
sbag7
(g8
g9
NtRp922
(dp923
g12
g29
sg14
S'Times New Roman'
p924
sg16
I500
sg17
g13
sg18
g13
sg19
S'/usr/share/fonts/truetype/msttcorefonts/timesi.ttf'
p925
sg21
g22
sbag7
(g8
g9
NtRp926
(dp927
g12
g29
sg14
S'Times New Roman'
p928
sg16
I500
sg17
g13
sg18
g13
sg19
S'/usr/share/fonts/truetype/msttcorefonts/Times_New_Roman_Italic.ttf'
p929
sg21
g22
sbag7
(g8
g9
NtRp930
(dp931
g12
g13
sg14
S'Trebuchet MS'
p932
sg16
I700
sg17
g13
sg18
g13
sg19
S'/usr/share/fonts/truetype/msttcorefonts/trebucbd.ttf'
p933
sg21
g22
sbag7
(g8
g9
NtRp934
(dp935
g12
g13
sg14
S'Lohit Tamil'
p936
sg16
I400
sg17
g13
sg18
g13
sg19
S'/usr/share/fonts/truetype/ttf-indic-fonts-core/lohit_ta.ttf'
p937
sg21
g22
sbag7
(g8
g9
NtRp938
(dp939
g12
g13
sg14
S'Pothana2000'
p940
sg16
I400
sg17
g13
sg18
g13
sg19
S'/usr/share/fonts/truetype/ttf-indic-fonts-core/Pothana2000.ttf'
p941
sg21
g22
sbag7
(g8
g9
NtRp942
(dp943
g12
g29
sg14
S'Georgia'
p944
sg16
I700
sg17
g13
sg18
g13
sg19
S'/usr/share/fonts/truetype/msttcorefonts/georgiaz.ttf'
p945
sg21
g22
sbag7
(g8
g9
NtRp946
(dp947
g12
g29
sg14
S'Courier New'
p948
sg16
I700
sg17
g13
sg18
g13
sg19
S'/usr/share/fonts/truetype/msttcorefonts/Courier_New_Bold_Italic.ttf'
p949
sg21
g22
sbag7
(g8
g9
NtRp950
(dp951
g12
g13
sg14
S'Ume Gothic O5'
p952
sg16
I400
sg17
g13
sg18
g13
sg19
S'/usr/share/fonts/truetype/umefont/ume-tgo5.ttf'
p953
sg21
g22
sbag7
(g8
g9
NtRp954
(dp955
g12
g13
sg14
S'Rachana'
p956
sg16
I400
sg17
g13
sg18
g13
sg19
S'/usr/share/fonts/truetype/ttf-indic-fonts-core/Rachana_04.ttf'
p957
sg21
g22
sbag7
(g8
g9
NtRp958
(dp959
g12
g13
sg14
S'KacstArt'
p960
sg16
I400
sg17
g13
sg18
g13
sg19
S'/usr/share/fonts/truetype/ttf-kacst/KacstArt.ttf'
p961
sg21
g22
sbag7
(g8
g9
NtRp962
(dp963
g12
g13
sg14
S'Arial'
p964
sg16
I700
sg17
g13
sg18
g13
sg19
S'/usr/share/fonts/truetype/msttcorefonts/arialbd.ttf'
p965
sg21
g22
sbag7
(g8
g9
NtRp966
(dp967
g12
g13
sg14
S'Umpush'
p968
sg16
I700
sg17
g13
sg18
g13
sg19
S'/usr/share/fonts/truetype/thai/Umpush-Bold.ttf'
p969
sg21
g22
sbag7
(g8
g9
NtRp970
(dp971
g12
g13
sg14
S'Times New Roman'
p972
sg16
I700
sg17
g13
sg18
g13
sg19
S'/usr/share/fonts/truetype/msttcorefonts/timesbd.ttf'
p973
sg21
g22
sbag7
(g8
g9
NtRp974
(dp975
g12
g13
sg14
S'Trebuchet MS'
p976
sg16
I700
sg17
g13
sg18
g13
sg19
S'/usr/share/fonts/truetype/msttcorefonts/Trebuchet_MS_Bold.ttf'
p977
sg21
g22
sbag7
(g8
g9
NtRp978
(dp979
g12
g29
sg14
S'Droid Serif'
p980
sg16
I400
sg17
g13
sg18
g13
sg19
S'/usr/share/fonts/truetype/ttf-droid/DroidSerif-Italic.ttf'
p981
sg21
g22
sbag7
(g8
g9
NtRp982
(dp983
g12
g29
sg14
S'DejaVu Serif'
p984
sg16
I400
sg17
g192
sg18
g13
sg19
S'/usr/share/fonts/truetype/ttf-dejavu/DejaVuSerifCondensed-Italic.ttf'
p985
sg21
g22
sbag7
(g8
g9
NtRp986
(dp987
g12
g29
sg14
S'Gentium'
p988
sg16
I400
sg17
g13
sg18
g13
sg19
S'/usr/share/fonts/truetype/ttf-sil-gentium/GenI102.ttf'
p989
sg21
g22
sbag7
(g8
g9
NtRp990
(dp991
g12
g13
sg14
S'Kedage'
p992
sg16
I400
sg17
g13
sg18
g13
sg19
S'/usr/share/fonts/truetype/ttf-indic-fonts-core/Kedage-n.ttf'
p993
sg21
g22
sbag7
(g8
g9
NtRp994
(dp995
g12
g13
sg14
S'Arial'
p996
sg16
I400
sg17
g13
sg18
g13
sg19
S'/usr/share/fonts/truetype/msttcorefonts/arial.ttf'
p997
sg21
g22
sbag7
(g8
g9
NtRp998
(dp999
g12
g118
sg14
S'FreeMono'
p1000
sg16
I400
sg17
g13
sg18
g13
sg19
S'/usr/share/fonts/truetype/freefont/FreeMonoOblique.ttf'
p1001
sg21
g22
sbag7
(g8
g9
NtRp1002
(dp1003
g12
g13
sg14
S'TlwgTypewriter'
p1004
sg16
I700
sg17
g13
sg18
g13
sg19
S'/usr/share/fonts/truetype/thai/TlwgTypewriter-Bold.ttf'
p1005
sg21
g22
sbag7
(g8
g9
NtRp1006
(dp1007
g12
g13
sg14
S'KacstFarsi'
p1008
sg16
I400
sg17
g13
sg18
g13
sg19
S'/usr/share/fonts/truetype/ttf-kacst/KacstFarsi.ttf'
p1009
sg21
g22
sbag7
(g8
g9
NtRp1010
(dp1011
g12
g13
sg14
S'Comic Sans MS'
p1012
sg16
I400
sg17
g13
sg18
g13
sg19
S'/usr/share/fonts/truetype/msttcorefonts/comic.ttf'
p1013
sg21
g22
sbag7
(g8
g9
NtRp1014
(dp1015
g12
g13
sg14
S'Umpush'
p1016
sg16
I200
sg17
g13
sg18
g13
sg19
S'/usr/share/fonts/truetype/thai/Umpush-Light.ttf'
p1017
sg21
g22
sbag7
(g8
g9
NtRp1018
(dp1019
g12
g118
sg14
S'Garuda'
p1020
sg16
I400
sg17
g13
sg18
g13
sg19
S'/usr/share/fonts/truetype/thai/Garuda-Oblique.ttf'
p1021
sg21
g22
sbag7
(g8
g9
NtRp1022
(dp1023
g12
g13
sg14
S'Webdings'
p1024
sg16
I400
sg17
g13
sg18
g13
sg19
S'/usr/share/fonts/truetype/msttcorefonts/webdings.ttf'
p1025
sg21
g22
sbag7
(g8
g9
NtRp1026
(dp1027
g12
g118
sg14
S'Tlwg Typo'
p1028
sg16
I700
sg17
g13
sg18
g13
sg19
S'/usr/share/fonts/truetype/thai/TlwgTypo-BoldOblique.ttf'
p1029
sg21
g22
sbag7
(g8
g9
NtRp1030
(dp1031
g12
g13
sg14
S'FreeSerif'
p1032
sg16
I400
sg17
g13
sg18
g13
sg19
S'/usr/share/fonts/truetype/freefont/FreeSerif.ttf'
p1033
sg21
g22
sbag7
(g8
g9
NtRp1034
(dp1035
g12
g13
sg14
S'OpenSymbol'
p1036
sg16
I400
sg17
g13
sg18
g13
sg19
S'/usr/share/fonts/truetype/openoffice/opens___.ttf'
p1037
sg21
g22
sbag7
(g8
g9
NtRp1038
(dp1039
g12
g13
sg14
S'Arial'
p1040
sg16
I700
sg17
g13
sg18
g13
sg19
S'/usr/share/fonts/truetype/msttcorefonts/Arial_Bold.ttf'
p1041
sg21
g22
sbag7
(g8
g9
NtRp1042
(dp1043
g12
g13
sg14
S'TakaoPGothic'
p1044
sg16
I400
sg17
g13
sg18
g13
sg19
S'/usr/share/fonts/truetype/ttf-japanese-gothic.ttf'
p1045
sg21
g22
sbag7
(g8
g9
NtRp1046
(dp1047
g12
g13
sg14
S'Liberation Mono'
p1048
sg16
I400
sg17
g13
sg18
g13
sg19
S'/usr/share/fonts/truetype/ttf-liberation/LiberationMono-Regular.ttf'
p1049
sg21
g22
sbag7
(g8
g9
NtRp1050
(dp1051
g12
g13
sg14
S'Purisa'
p1052
sg16
I700
sg17
g13
sg18
g13
sg19
S'/usr/share/fonts/truetype/thai/Purisa-Bold.ttf'
p1053
sg21
g22
sbag7
(g8
g9
NtRp1054
(dp1055
g12
g118
sg14
S'Umpush'
p1056
sg16
I400
sg17
g13
sg18
g13
sg19
S'/usr/share/fonts/truetype/thai/Umpush-Oblique.ttf'
p1057
sg21
g22
sbag7
(g8
g9
NtRp1058
(dp1059
g12
g29
sg14
S'Times New Roman'
p1060
sg16
I700
sg17
g13
sg18
g13
sg19
S'/usr/share/fonts/truetype/msttcorefonts/timesbi.ttf'
p1061
sg21
g22
sbag7
(g8
g9
NtRp1062
(dp1063
g12
g13
sg14
S'Symbol'
p1064
sg16
I400
sg17
g13
sg18
g13
sg19
S'/usr/share/fonts/truetype/ttf-symbol-replacement/symbol-replacement.ttf/symbol.ttf'
p1065
sg21
g22
sbag7
(g8
g9
NtRp1066
(dp1067
g12
g13
sg14
S'Comic Sans MS'
p1068
sg16
I400
sg17
g13
sg18
g13
sg19
S'/usr/share/fonts/truetype/msttcorefonts/Comic_Sans_MS.ttf'
p1069
sg21
g22
sbag7
(g8
g9
NtRp1070
(dp1071
g12
g13
sg14
S'Webdings'
p1072
sg16
I400
sg17
g13
sg18
g13
sg19
S'/usr/share/fonts/truetype/msttcorefonts/Webdings.ttf'
p1073
sg21
g22
sbag7
(g8
g9
NtRp1074
(dp1075
g12
g29
sg14
S'Liberation Serif'
p1076
sg16
I700
sg17
g13
sg18
g13
sg19
S'/usr/share/fonts/truetype/ttf-liberation/LiberationSerif-BoldItalic.ttf'
p1077
sg21
g22
sbag7
(g8
g9
NtRp1078
(dp1079
g12
g118
sg14
S'Sawasdee'
p1080
sg16
I400
sg17
g13
sg18
g13
sg19
S'/usr/share/fonts/truetype/thai/Sawasdee-Oblique.ttf'
p1081
sg21
g22
sbag7
(g8
g9
NtRp1082
(dp1083
g12
g29
sg14
S'Arial'
p1084
sg16
I700
sg17
g13
sg18
g13
sg19
S'/usr/share/fonts/truetype/msttcorefonts/Arial_Bold_Italic.ttf'
p1085
sg21
g22
sbag7
(g8
g9
NtRp1086
(dp1087
g12
g13
sg14
S'Norasi'
p1088
sg16
I700
sg17
g13
sg18
g13
sg19
S'/usr/share/fonts/truetype/thai/Norasi-Bold.ttf'
p1089
sg21
g22
sbag7
(g8
g9
NtRp1090
(dp1091
g12
g118
sg14
S'Purisa'
p1092
sg16
I400
sg17
g13
sg18
g13
sg19
S'/usr/share/fonts/truetype/thai/Purisa-Oblique.ttf'
p1093
sg21
g22
sbag7
(g8
g9
NtRp1094
(dp1095
g12
g13
sg14
S'FreeMono'
p1096
sg16
I700
sg17
g13
sg18
g13
sg19
S'/usr/share/fonts/truetype/freefont/FreeMonoBold.ttf'
p1097
sg21
g22
sbag7
(g8
g9
NtRp1098
(dp1099
g12
g13
sg14
S'Lohit Gujarati'
p1100
sg16
I400
sg17
g13
sg18
g13
sg19
S'/usr/share/fonts/truetype/ttf-indic-fonts-core/lohit_gu.ttf'
p1101
sg21
g22
sbag7
(g8
g9
NtRp1102
(dp1103
g12
g13
sg14
S'Impact'
p1104
sg16
I400
sg17
g13
sg18
g13
sg19
S'/usr/share/fonts/truetype/msttcorefonts/impact.ttf'
p1105
sg21
g22
sbag7
(g8
g9
NtRp1106
(dp1107
g12
g118
sg14
S'Tlwg Typist'
p1108
sg16
I700
sg17
g13
sg18
g13
sg19
S'/usr/share/fonts/truetype/thai/TlwgTypist-BoldOblique.ttf'
p1109
sg21
g22
sbag7
(g8
g9
NtRp1110
(dp1111
g12
g13
sg14
S'KacstScreen'
p1112
sg16
I400
sg17
g13
sg18
g13
sg19
S'/usr/share/fonts/truetype/ttf-kacst/KacstScreen.ttf'
p1113
sg21
g22
sbag7
(g8
g9
NtRp1114
(dp1115
g12
g13
sg14
S'Ume P Gothic S4'
p1116
sg16
I400
sg17
g13
sg18
g13
sg19
S'/usr/share/fonts/truetype/umefont/ume-pgs4.ttf'
p1117
sg21
g22
sbag7
(g8
g9
NtRp1118
(dp1119
g12
g13
sg14
S'Khmer OS'
p1120
sg16
I400
sg17
g13
sg18
g13
sg19
S'/usr/share/fonts/truetype/ttf-khmeros-core/KhmerOS.ttf'
p1121
sg21
g22
sbag7
(g8
g9
NtRp1122
(dp1123
g12
g13
sg14
S'Verdana'
p1124
sg16
I700
sg17
g13
sg18
g13
sg19
S'/usr/share/fonts/truetype/msttcorefonts/verdanab.ttf'
p1125
sg21
g22
sbag7
(g8
g9
NtRp1126
(dp1127
g12
g13
sg14
S'Tlwg Typo'
p1128
sg16
I700
sg17
g13
sg18
g13
sg19
S'/usr/share/fonts/truetype/thai/TlwgTypo-Bold.ttf'
p1129
sg21
g22
sbag7
(g8
g9
NtRp1130
(dp1131
g12
g29
sg14
S'Trebuchet MS'
p1132
sg16
I700
sg17
g13
sg18
g13
sg19
S'/usr/share/fonts/truetype/msttcorefonts/Trebuchet_MS_Bold_Italic.ttf'
p1133
sg21
g22
sbag7
(g8
g9
NtRp1134
(dp1135
g12
g13
sg14
S'KacstTitleL'
p1136
sg16
I400
sg17
g13
sg18
g13
sg19
S'/usr/share/fonts/truetype/ttf-kacst/KacstTitleL.ttf'
p1137
sg21
g22
sbag7
(g8
g9
NtRp1138
(dp1139
g12
g118
sg14
S'Waree'
p1140
sg16
I400
sg17
g13
sg18
g13
sg19
S'/usr/share/fonts/truetype/thai/Waree-Oblique.ttf'
p1141
sg21
g22
sbag7
(g8
g9
NtRp1142
(dp1143
g12
g13
sg14
S'GFS Artemisia'
p1144
sg16
I700
sg17
g13
sg18
g13
sg19
S'/usr/share/fonts/truetype/ttf-gfs-artemisia/GFSArtemisiaBold.otf'
p1145
sg21
g22
sbag7
(g8
g9
NtRp1146
(dp1147
g12
g13
sg14
S'Liberation Serif'
p1148
sg16
I400
sg17
g13
sg18
g13
sg19
S'/usr/share/fonts/truetype/ttf-liberation/LiberationSerif-Regular.ttf'
p1149
sg21
g22
sbag7
(g8
g9
NtRp1150
(dp1151
g12
g13
sg14
S'DejaVu Sans'
p1152
sg16
I200
sg17
g13
sg18
g13
sg19
S'/usr/share/fonts/truetype/ttf-dejavu/DejaVuSans-ExtraLight.ttf'
p1153
sg21
g22
sbag7
(g8
g9
NtRp1154
(dp1155
g12
g13
sg14
S'msam10'
p1156
sg16
I400
sg17
g13
sg18
g13
sg19
S'/usr/share/fonts/truetype/ttf-lyx/msam10.ttf'
p1157
sg21
g22
sbag7
(g8
g9
NtRp1158
(dp1159
g12
g29
sg14
S'Norasi'
p1160
sg16
I700
sg17
g13
sg18
g13
sg19
S'/usr/share/fonts/truetype/thai/Norasi-BoldItalic.ttf'
p1161
sg21
g22
sbag7
(g8
g9
NtRp1162
(dp1163
g12
g118
sg14
S'Norasi'
p1164
sg16
I700
sg17
g13
sg18
g13
sg19
S'/usr/share/fonts/truetype/thai/Norasi-BoldOblique.ttf'
p1165
sg21
g22
sbag7
(g8
g9
NtRp1166
(dp1167
g12
g13
sg14
S'Ume P Gothic'
p1168
sg16
I400
sg17
g13
sg18
g13
sg19
S'/usr/share/fonts/truetype/umefont/ume-pgo4.ttf'
p1169
sg21
g22
sbag7
(g8
g9
NtRp1170
(dp1171
g12
g29
sg14
S'FreeSerif'
p1172
sg16
I400
sg17
g13
sg18
g13
sg19
S'/usr/share/fonts/truetype/freefont/FreeSerifItalic.ttf'
p1173
sg21
g22
sbag7
(g8
g9
NtRp1174
(dp1175
g12
g13
sg14
S'Mukti Narrow'
p1176
sg16
I400
sg17
g13
sg18
g13
sg19
S'/usr/share/fonts/truetype/ttf-indic-fonts-core/MuktiNarrow.ttf'
p1177
sg21
g22
sbag7
(g8
g9
NtRp1178
(dp1179
g12
g13
sg14
S'Ubuntu'
p1180
sg16
I200
sg17
g13
sg18
g13
sg19
S'/usr/share/fonts/truetype/ubuntu-font-family/Ubuntu-L.ttf'
p1181
sg21
g22
sbag7
(g8
g9
NtRp1182
(dp1183
g12
g29
sg14
S'Norasi'
p1184
sg16
I400
sg17
g13
sg18
g13
sg19
S'/usr/share/fonts/truetype/thai/Norasi-Italic.ttf'
p1185
sg21
g22
sbag7
(g8
g9
NtRp1186
(dp1187
g12
g13
sg14
S'Ume P Gothic S5'
p1188
sg16
I400
sg17
g13
sg18
g13
sg19
S'/usr/share/fonts/truetype/umefont/ume-pgs5.ttf'
p1189
sg21
g22
sbag7
(g8
g9
NtRp1190
(dp1191
g12
g13
sg14
S'DejaVu Serif'
p1192
sg16
I400
sg17
g192
sg18
g13
sg19
S'/usr/share/fonts/truetype/ttf-dejavu/DejaVuSerifCondensed.ttf'
p1193
sg21
g22
sbag7
(g8
g9
NtRp1194
(dp1195
g12
g13
sg14
S'Times New Roman'
p1196
sg16
I700
sg17
g13
sg18
g13
sg19
S'/usr/share/fonts/truetype/msttcorefonts/Times_New_Roman_Bold.ttf'
p1197
sg21
g22
sbasS'ttffiles'
p1198
(lp1199
S'/usr/share/matplotlib/mpl-data/fonts/ttf/cmb10.ttf'
p1200
aS'/usr/share/matplotlib/mpl-data/fonts/ttf/cmex10.ttf'
p1201
aS'/usr/share/matplotlib/mpl-data/fonts/ttf/STIXNonUniIta.ttf'
p1202
aS'/usr/share/matplotlib/mpl-data/fonts/ttf/STIXNonUni.ttf'
p1203
aS'/usr/share/matplotlib/mpl-data/fonts/ttf/STIXSiz5Sym.ttf'
p1204
aS'/usr/share/matplotlib/mpl-data/fonts/ttf/cmtt10.ttf'
p1205
aS'/usr/share/matplotlib/mpl-data/fonts/ttf/STIXGeneral.ttf'
p1206
aS'/usr/share/matplotlib/mpl-data/fonts/ttf/STIXNonUniBolIta.ttf'
p1207
aS'/usr/share/matplotlib/mpl-data/fonts/ttf/STIXSiz3SymBol.ttf'
p1208
aS'/usr/share/matplotlib/mpl-data/fonts/ttf/STIXSiz3Sym.ttf'
p1209
aS'/usr/share/matplotlib/mpl-data/fonts/ttf/STIXSiz2Sym.ttf'
p1210
aS'/usr/share/matplotlib/mpl-data/fonts/ttf/STIXGeneralBol.ttf'
p1211
aS'/usr/share/matplotlib/mpl-data/fonts/ttf/STIXSiz4SymBol.ttf'
p1212
aS'/usr/share/matplotlib/mpl-data/fonts/ttf/STIXSiz2SymBol.ttf'
p1213
aS'/usr/share/matplotlib/mpl-data/fonts/ttf/cmsy10.ttf'
p1214
aS'/usr/share/matplotlib/mpl-data/fonts/ttf/cmss10.ttf'
p1215
aS'/usr/share/matplotlib/mpl-data/fonts/ttf/STIXSiz1SymBol.ttf'
p1216
aS'/usr/share/matplotlib/mpl-data/fonts/ttf/STIXGeneralItalic.ttf'
p1217
aS'/usr/share/matplotlib/mpl-data/fonts/ttf/cmr10.ttf'
p1218
aS'/usr/share/matplotlib/mpl-data/fonts/ttf/STIXSiz4Sym.ttf'
p1219
aS'/usr/share/matplotlib/mpl-data/fonts/ttf/STIXSiz1Sym.ttf'
p1220
aS'/usr/share/matplotlib/mpl-data/fonts/ttf/cmmi10.ttf'
p1221
aS'/usr/share/matplotlib/mpl-data/fonts/ttf/STIXNonUniBol.ttf'
p1222
aS'/usr/share/matplotlib/mpl-data/fonts/ttf/STIXGeneralBolIta.ttf'
p1223
aS'/usr/share/fonts/truetype/thai/Purisa-BoldOblique.ttf'
p1224
aS'/usr/share/fonts/truetype/ttf-gfs-artemisia/GFSArtemisiaIt.otf'
p1225
aS'/usr/share/fonts/truetype/ttf-kacst/mry_KacstQurn.ttf'
p1226
aS'/usr/share/fonts/truetype/ttf-indic-fonts-core/Malige-b.ttf'
p1227
aS'/usr/share/fonts/truetype/thai/Kinnari-BoldOblique.ttf'
p1228
aS'/usr/share/fonts/truetype/ttf-liberation/LiberationSans-Bold.ttf'
p1229
aS'/usr/share/fonts/truetype/thai/TlwgTypo-Oblique.ttf'
p1230
aS'/usr/share/fonts/truetype/ttf-gfs-solomos/GFSSolomos.otf'
p1231
aS'/usr/share/fonts/truetype/ttf-sil-gentium/GenAI102.ttf'
p1232
aS'/usr/share/fonts/truetype/thai/Umpush.ttf'
p1233
aS'/usr/share/fonts/truetype/umefont/ume-tgs5.ttf'
p1234
aS'/usr/share/fonts/truetype/msttcorefonts/Times_New_Roman.ttf'
p1235
aS'/usr/share/fonts/truetype/thai/Loma-BoldOblique.ttf'
p1236
aS'/usr/share/fonts/truetype/freefont/FreeSans.ttf'
p1237
aS'/usr/share/fonts/truetype/unfonts/UnBatangBold.ttf'
p1238
aS'/usr/share/fonts/truetype/msttcorefonts/verdanai.ttf'
p1239
aS'/usr/share/fonts/truetype/ttf-dejavu/DejaVuSansMono-Oblique.ttf'
p1240
aS'/usr/share/fonts/truetype/ttf-lyx/rsfs10.ttf'
p1241
aS'/usr/share/fonts/truetype/ttf-dejavu/DejaVuSansCondensed.ttf'
p1242
aS'/usr/share/fonts/truetype/ttf-liberation/LiberationMono-Bold.ttf'
p1243
aS'/usr/share/fonts/truetype/ttf-droid/DroidSansFallback.ttf'
p1244
aS'/usr/share/fonts/truetype/thai/TlwgTypewriter-Oblique.ttf'
p1245
aS'/usr/share/fonts/truetype/msttcorefonts/trebucit.ttf'
p1246
aS'/usr/share/fonts/truetype/ttf-punjabi-fonts/lohit_pa.ttf'
p1247
aS'/usr/share/fonts/truetype/thai/Kinnari.ttf'
p1248
aS'/usr/share/fonts/truetype/ttf-indic-fonts-core/Meera_04.ttf'
p1249
aS'/usr/share/fonts/truetype/thai/Loma-Oblique.ttf'
p1250
aS'/usr/share/fonts/truetype/umefont/ume-pms3.ttf'
p1251
aS'/usr/share/fonts/truetype/ubuntu-font-family/Ubuntu-RI.ttf'
p1252
aS'/usr/share/fonts/truetype/msttcorefonts/Georgia_Bold.ttf'
p1253
aS'/usr/share/fonts/truetype/msttcorefonts/ariblk.ttf'
p1254
aS'/usr/share/fonts/truetype/freefont/FreeSerifBold.ttf'
p1255
aS'/usr/share/fonts/truetype/freefont/FreeMonoBoldOblique.ttf'
p1256
aS'/usr/share/fonts/truetype/thai/Umpush-BoldOblique.ttf'
p1257
aS'/usr/share/fonts/truetype/ttf-liberation/LiberationMono-Italic.ttf'
p1258
aS'/usr/share/fonts/truetype/ttf-dejavu/DejaVuSerif-Bold.ttf'
p1259
aS'/usr/share/fonts/truetype/ttf-gfs-neohellenic/GFSNeohellenic.otf'
p1260
aS'/usr/share/fonts/truetype/ttf-gfs-artemisia/GFSArtemisiaBoldIt.otf'
p1261
aS'/usr/share/fonts/truetype/msttcorefonts/georgiab.ttf'
p1262
aS'/usr/share/fonts/truetype/ttf-dejavu/DejaVuSerif-Italic.ttf'
p1263
aS'/usr/share/fonts/truetype/ttf-kacst/KacstOffice.ttf'
p1264
aS'/usr/share/fonts/truetype/freefont/FreeSansOblique.ttf'
p1265
aS'/usr/share/fonts/truetype/msttcorefonts/Comic_Sans_MS_Bold.ttf'
p1266
aS'/usr/share/fonts/truetype/umefont/ume-tgs4.ttf'
p1267
aS'/usr/share/fonts/truetype/thai/TlwgMono-Bold.ttf'
p1268
aS'/usr/share/fonts/truetype/ttf-indic-fonts-core/lohit_hi.ttf'
p1269
aS'/usr/share/fonts/truetype/msttcorefonts/Courier_New_Bold.ttf'
p1270
aS'/usr/share/fonts/truetype/msttcorefonts/Georgia_Bold_Italic.ttf'
p1271
aS'/usr/share/fonts/truetype/ttf-dejavu/DejaVuSans-Oblique.ttf'
p1272
aS'/usr/share/fonts/truetype/ttf-gfs-olga/GFSOlga.otf'
p1273
aS'/usr/share/fonts/truetype/unfonts/UnDotumBold.ttf'
p1274
aS'/usr/share/fonts/truetype/thai/Norasi.ttf'
p1275
aS'/usr/share/fonts/truetype/umefont/ume-tgc4.ttf'
p1276
aS'/usr/share/fonts/truetype/ubuntu-font-family/Ubuntu-R.ttf'
p1277
aS'/usr/share/fonts/truetype/msttcorefonts/Times_New_Roman_Bold_Italic.ttf'
p1278
aS'/usr/share/fonts/truetype/ttf-lyx/eufm10.ttf'
p1279
aS'/usr/share/fonts/truetype/umefont/ume-tgo4.ttf'
p1280
aS'/usr/share/fonts/truetype/ttf-dejavu/DejaVuSerif-BoldItalic.ttf'
p1281
aS'/usr/share/fonts/truetype/ttf-liberation/LiberationSans-Italic.ttf'
p1282
aS'/usr/share/fonts/truetype/ttf-lyx/wasy10.ttf'
p1283
aS'/usr/share/fonts/truetype/msttcorefonts/Impact.ttf'
p1284
aS'/usr/share/fonts/truetype/ttf-dejavu/DejaVuSansCondensed-BoldOblique.ttf'
p1285
aS'/usr/share/fonts/truetype/msttcorefonts/Georgia.ttf'
p1286
aS'/usr/share/fonts/truetype/umefont/ume-pgc4.ttf'
p1287
aS'/usr/share/fonts/truetype/thai/Sawasdee-Bold.ttf'
p1288
aS'/usr/share/fonts/truetype/ttf-gfs-gazis/GFSGazis.otf'
p1289
aS'/usr/share/fonts/truetype/ttf-lyx/msbm10.ttf'
p1290
aS'/usr/share/fonts/truetype/msttcorefonts/andalemo.ttf'
p1291
aS'/usr/share/fonts/truetype/thai/Waree.ttf'
p1292
aS'/usr/share/fonts/truetype/umefont/ume-tms3.ttf'
p1293
aS'/usr/share/fonts/truetype/msttcorefonts/arialbi.ttf'
p1294
aS'/usr/share/fonts/truetype/umefont/ume-pgo5.ttf'
p1295
aS'/usr/share/fonts/truetype/ttf-dejavu/DejaVuSansMono-BoldOblique.ttf'
p1296
aS'/usr/share/fonts/truetype/msttcorefonts/Verdana.ttf'
p1297
aS'/usr/share/fonts/truetype/ttf-dejavu/DejaVuSansMono-Bold.ttf'
p1298
aS'/usr/share/fonts/truetype/ttf-gfs-baskerville/GFSBaskerville.otf'
p1299
aS'/usr/share/fonts/truetype/ttf-kacst/KacstBook.ttf'
p1300
aS'/usr/share/fonts/truetype/ttf-symbol-replacement/symbol-replacement.ttf'
p1301
aS'/usr/share/fonts/truetype/thai/Sawasdee-BoldOblique.ttf'
p1302
aS'/usr/share/fonts/truetype/msttcorefonts/Courier_New_Italic.ttf'
p1303
aS'/usr/share/fonts/truetype/thai/Waree-BoldOblique.ttf'
p1304
aS'/usr/share/fonts/truetype/thai/TlwgTypewriter.ttf'
p1305
aS'/usr/share/fonts/truetype/ttf-dejavu/DejaVuSansCondensed-Oblique.ttf'
p1306
aS'/usr/share/fonts/truetype/msttcorefonts/cour.ttf'
p1307
aS'/usr/share/fonts/truetype/ttf-sil-gentium/GenR102.ttf'
p1308
aS'/usr/share/fonts/truetype/ttf-indic-fonts-core/utkal.ttf'
p1309
aS'/usr/share/fonts/truetype/thai/Garuda-BoldOblique.ttf'
p1310
aS'/usr/share/fonts/truetype/ttf-gfs-didot/GFSDidot.otf'
p1311
aS'/usr/share/fonts/truetype/msttcorefonts/courbd.ttf'
p1312
aS'/usr/share/fonts/truetype/vlgothic/VL-Gothic-Regular.ttf'
p1313
aS'/usr/share/fonts/truetype/msttcorefonts/Trebuchet_MS.ttf'
p1314
aS'/usr/share/fonts/truetype/thai/TlwgMono-BoldOblique.ttf'
p1315
aS'/usr/share/fonts/truetype/thai/TlwgTypist-Oblique.ttf'
p1316
aS'/usr/share/fonts/truetype/vlgothic/VL-PGothic-Regular.ttf'
p1317
aS'/usr/share/fonts/truetype/ttf-indic-fonts-core/Kedage-b.ttf'
p1318
aS'/usr/share/fonts/truetype/ttf-dejavu/DejaVuSerifCondensed-Bold.ttf'
p1319
aS'/usr/share/fonts/truetype/ttf-kacst-one/KacstOne.ttf'
p1320
aS'/usr/share/fonts/truetype/msttcorefonts/Trebuchet_MS_Italic.ttf'
p1321
aS'/usr/share/fonts/truetype/ttf-liberation/LiberationSerif-Bold.ttf'
p1322
aS'/usr/share/fonts/truetype/msttcorefonts/Courier_New.ttf'
p1323
aS'/usr/share/fonts/truetype/msttcorefonts/comicbd.ttf'
p1324
aS'/usr/share/fonts/truetype/thai/TlwgTypist-Bold.ttf'
p1325
aS'/usr/share/fonts/truetype/ttf-liberation/LiberationSans-Regular.ttf'
p1326
aS'/usr/share/fonts/truetype/ttf-gfs-neohellenic/GFSNeohellenicIt.otf'
p1327
aS'/usr/share/fonts/truetype/msttcorefonts/Arial.ttf'
p1328
aS'/usr/share/fonts/truetype/ttf-liberation/LiberationMono-BoldItalic.ttf'
p1329
aS'/usr/share/fonts/truetype/umefont/ume-pgc5.ttf'
p1330
aS'/usr/share/fonts/truetype/ttf-kacst/KacstDigital.ttf'
p1331
aS'/usr/share/fonts/truetype/msttcorefonts/courbi.ttf'
p1332
aS'/usr/share/fonts/truetype/msttcorefonts/times.ttf'
p1333
aS'/usr/share/fonts/truetype/ttf-kacst/KacstPoster.ttf'
p1334
aS'/usr/share/fonts/truetype/ttf-dejavu/DejaVuSansCondensed-Bold.ttf'
p1335
aS'/usr/share/fonts/truetype/msttcorefonts/Verdana_Italic.ttf'
p1336
aS'/usr/share/fonts/truetype/ttf-liberation/LiberationSans-BoldItalic.ttf'
p1337
aS'/usr/share/fonts/truetype/ttf-sil-gentium/GenAR102.ttf'
p1338
aS'/usr/share/fonts/truetype/ttf-indic-fonts-core/Malige-n.ttf'
p1339
aS'/usr/share/fonts/truetype/msttcorefonts/georgia.ttf'
p1340
aS'/usr/share/fonts/truetype/ttf-kacst/KacstQurn.ttf'
p1341
aS'/usr/share/fonts/truetype/ttf-liberation/LiberationSerif-Italic.ttf'
p1342
aS'/usr/share/fonts/truetype/msttcorefonts/trebuc.ttf'
p1343
aS'/usr/share/fonts/truetype/ttf-dejavu/DejaVuSerifCondensed-BoldItalic.ttf'
p1344
aS'/usr/share/fonts/truetype/freefont/FreeSansBold.ttf'
p1345
aS'/usr/share/fonts/truetype/thai/Loma-Bold.ttf'
p1346
aS'/usr/share/fonts/truetype/thai/TlwgTypo.ttf'
p1347
aS'/usr/share/fonts/truetype/ttf-droid/DroidSans.ttf'
p1348
aS'/usr/share/fonts/truetype/thai/Sawasdee.ttf'
p1349
aS'/usr/share/fonts/truetype/ttf-droid/DroidSansMono.ttf'
p1350
aS'/usr/share/fonts/truetype/ttf-droid/DroidSerif-BoldItalic.ttf'
p1351
aS'/usr/share/fonts/truetype/msttcorefonts/verdana.ttf'
p1352
aS'/usr/share/fonts/truetype/msttcorefonts/verdanaz.ttf'
p1353
aS'/usr/share/fonts/truetype/ttf-kacst/KacstTitle.ttf'
p1354
aS'/usr/share/fonts/truetype/ttf-gfs-neohellenic/GFSNeohellenicBold.otf'
p1355
aS'/usr/share/fonts/truetype/ttf-punjabi-fonts/Saab.ttf'
p1356
aS'/usr/share/fonts/truetype/ttf-dejavu/DejaVuSans-Bold.ttf'
p1357
aS'/usr/share/fonts/truetype/ttf-kacst/KacstNaskh.ttf'
p1358
aS'/usr/share/fonts/truetype/thai/Garuda.ttf'
p1359
aS'/usr/share/fonts/truetype/ttf-gfs-didot/GFSDidotItalic.otf'
p1360
aS'/usr/share/fonts/truetype/msttcorefonts/Verdana_Bold.ttf'
p1361
aS'/usr/share/fonts/truetype/ttf-lao/Phetsarath_OT.ttf'
p1362
aS'/usr/share/fonts/truetype/ttf-gfs-didot-classic/GFSDidotClassic.otf'
p1363
aS'/usr/share/fonts/truetype/msttcorefonts/georgiai.ttf'
p1364
aS'/usr/share/fonts/truetype/msttcorefonts/Andale_Mono.ttf'
p1365
aS'/usr/share/fonts/truetype/msttcorefonts/Georgia_Italic.ttf'
p1366
aS'/usr/share/fonts/truetype/ubuntu-font-family/Ubuntu-LI.ttf'
p1367
aS'/usr/share/fonts/truetype/umefont/ume-ugo5.ttf'
p1368
aS'/usr/share/fonts/truetype/thai/TlwgTypewriter-BoldOblique.ttf'
p1369
aS'/usr/share/fonts/truetype/thai/Garuda-Bold.ttf'
p1370
aS'/usr/share/fonts/truetype/ttf-droid/DroidSerif-Regular.ttf'
p1371
aS'/usr/share/fonts/truetype/thai/Loma.ttf'
p1372
aS'/usr/share/fonts/truetype/umefont/ume-tmo3.ttf'
p1373
aS'/usr/share/fonts/truetype/thai/Umpush-LightOblique.ttf'
p1374
aS'/usr/share/fonts/truetype/ttf-kacst/KacstLetter.ttf'
p1375
aS'/usr/share/fonts/truetype/msttcorefonts/couri.ttf'
p1376
aS'/usr/share/fonts/truetype/ttf-indic-fonts-core/Rekha.ttf'
p1377
aS'/usr/share/fonts/truetype/thai/Kinnari-Bold.ttf'
p1378
aS'/usr/share/fonts/truetype/ttf-gfs-theokritos/GFSTheokritos.otf'
p1379
aS'/usr/share/fonts/truetype/ttf-dejavu/DejaVuSans.ttf'
p1380
aS'/usr/share/fonts/truetype/ttf-gfs-neohellenic/GFSNeohellenicBoldIt.otf'
p1381
aS'/usr/share/fonts/truetype/ttf-lyx/esint10.ttf'
p1382
aS'/usr/share/fonts/truetype/ttf-dejavu/DejaVuSansMono.ttf'
p1383
aS'/usr/share/fonts/truetype/ttf-gfs-artemisia/GFSArtemisia.otf'
p1384
aS'/usr/share/fonts/truetype/umefont/ume-tgc5.ttf'
p1385
aS'/usr/share/fonts/truetype/thai/TlwgMono.ttf'
p1386
aS'/usr/share/fonts/truetype/ttf-kacst/KacstDecorative.ttf'
p1387
aS'/usr/share/fonts/truetype/msttcorefonts/Verdana_Bold_Italic.ttf'
p1388
aS'/usr/share/fonts/truetype/unfonts/UnBatang.ttf'
p1389
aS'/usr/share/fonts/truetype/ttf-indic-fonts-core/gargi.ttf'
p1390
aS'/usr/share/fonts/truetype/ttf-gfs-bodoni-classic/GFSBodoniClassic.otf'
p1391
aS'/usr/share/fonts/truetype/ubuntu-font-family/Ubuntu-BI.ttf'
p1392
aS'/usr/share/fonts/truetype/ttf-kacst/KacstPen.ttf'
p1393
aS'/usr/share/fonts/truetype/ttf-khmeros-core/KhmerOSsys.ttf'
p1394
aS'/usr/share/fonts/truetype/thai/Kinnari-Italic.ttf'
p1395
aS'/usr/share/fonts/truetype/umefont/ume-ugo4.ttf'
p1396
aS'/usr/share/fonts/truetype/msttcorefonts/Arial_Black.ttf'
p1397
aS'/usr/share/fonts/truetype/takao/TakaoPGothic.ttf'
p1398
aS'/usr/share/fonts/truetype/ttf-indic-fonts-core/MuktiNarrowBold.ttf'
p1399
aS'/usr/share/fonts/truetype/ttf-dejavu/DejaVuSerif.ttf'
p1400
aS'/usr/share/fonts/truetype/unfonts/UnDotum.ttf'
p1401
aS'/usr/share/fonts/truetype/thai/Kinnari-BoldItalic.ttf'
p1402
aS'/usr/share/fonts/truetype/ubuntu-font-family/Ubuntu-B.ttf'
p1403
aS'/usr/share/fonts/truetype/freefont/FreeSansBoldOblique.ttf'
p1404
aS'/usr/share/fonts/truetype/ttf-droid/DroidSerif-Bold.ttf'
p1405
aS'/usr/share/fonts/truetype/ttf-dejavu/DejaVuSans-BoldOblique.ttf'
p1406
aS'/usr/share/fonts/truetype/umefont/ume-pmo3.ttf'
p1407
aS'/usr/share/fonts/truetype/thai/Purisa.ttf'
p1408
aS'/usr/share/fonts/truetype/thai/TlwgMono-Oblique.ttf'
p1409
aS'/usr/share/fonts/truetype/msttcorefonts/Arial_Italic.ttf'
p1410
aS'/usr/share/fonts/truetype/ttf-gfs-didot/GFSDidotBoldItalic.otf'
p1411
aS'/usr/share/fonts/truetype/thai/TlwgTypist.ttf'
p1412
aS'/usr/share/fonts/truetype/ttf-gfs-porson/GFSPorson.otf'
p1413
aS'/usr/share/fonts/truetype/thai/Norasi-Oblique.ttf'
p1414
aS'/usr/share/fonts/truetype/thai/Kinnari-Oblique.ttf'
p1415
aS'/usr/share/fonts/truetype/ttf-lyx/cmr10.ttf'
p1416
aS'/usr/share/fonts/truetype/ttf-gfs-didot/GFSDidotBold.otf'
p1417
aS'/usr/share/fonts/truetype/msttcorefonts/ariali.ttf'
p1418
aS'/usr/share/fonts/truetype/ttf-droid/DroidSansJapanese.ttf'
p1419
aS'/usr/share/fonts/truetype/freefont/FreeSerifBoldItalic.ttf'
p1420
aS'/usr/share/fonts/truetype/ttf-indic-fonts-core/lohit_bn.ttf'
p1421
aS'/usr/share/fonts/truetype/msttcorefonts/trebucbi.ttf'
p1422
aS'/usr/share/fonts/truetype/ttf-droid/DroidSans-Bold.ttf'
p1423
aS'/usr/share/fonts/truetype/ttf-indic-fonts-core/Vemana.ttf'
p1424
aS'/usr/share/fonts/truetype/ttf-lyx/cmmi10.ttf'
p1425
aS'/usr/share/fonts/truetype/freefont/FreeMono.ttf'
p1426
aS'/usr/share/fonts/truetype/thai/Waree-Bold.ttf'
p1427
aS'/usr/share/fonts/truetype/msttcorefonts/timesi.ttf'
p1428
aS'/usr/share/fonts/truetype/msttcorefonts/Times_New_Roman_Italic.ttf'
p1429
aS'/usr/share/fonts/truetype/msttcorefonts/trebucbd.ttf'
p1430
aS'/usr/share/fonts/truetype/ttf-indic-fonts-core/lohit_ta.ttf'
p1431
aS'/usr/share/fonts/truetype/ttf-lyx/cmsy10.ttf'
p1432
aS'/usr/share/fonts/truetype/ttf-indic-fonts-core/Pothana2000.ttf'
p1433
aS'/usr/share/fonts/truetype/msttcorefonts/georgiaz.ttf'
p1434
aS'/usr/share/fonts/truetype/msttcorefonts/Courier_New_Bold_Italic.ttf'
p1435
aS'/usr/share/fonts/truetype/umefont/ume-tgo5.ttf'
p1436
aS'/usr/share/fonts/truetype/ttf-indic-fonts-core/Rachana_04.ttf'
p1437
aS'/usr/share/fonts/truetype/ttf-kacst/KacstArt.ttf'
p1438
aS'/usr/share/fonts/truetype/msttcorefonts/arialbd.ttf'
p1439
aS'/usr/share/fonts/truetype/thai/Umpush-Bold.ttf'
p1440
aS'/usr/share/fonts/truetype/msttcorefonts/timesbd.ttf'
p1441
aS'/usr/share/fonts/truetype/msttcorefonts/Trebuchet_MS_Bold.ttf'
p1442
aS'/usr/share/fonts/truetype/ttf-droid/DroidSerif-Italic.ttf'
p1443
aS'/usr/share/fonts/truetype/ttf-dejavu/DejaVuSerifCondensed-Italic.ttf'
p1444
aS'/usr/share/fonts/truetype/ttf-sil-gentium/GenI102.ttf'
p1445
aS'/usr/share/fonts/truetype/ttf-indic-fonts-core/Kedage-n.ttf'
p1446
aS'/usr/share/fonts/truetype/msttcorefonts/arial.ttf'
p1447
aS'/usr/share/fonts/truetype/freefont/FreeMonoOblique.ttf'
p1448
aS'/usr/share/fonts/truetype/thai/TlwgTypewriter-Bold.ttf'
p1449
aS'/usr/share/fonts/truetype/ttf-kacst/KacstFarsi.ttf'
p1450
aS'/usr/share/fonts/truetype/msttcorefonts/comic.ttf'
p1451
aS'/usr/share/fonts/truetype/thai/Umpush-Light.ttf'
p1452
aS'/usr/share/fonts/truetype/thai/Garuda-Oblique.ttf'
p1453
aS'/usr/share/fonts/truetype/msttcorefonts/webdings.ttf'
p1454
aS'/usr/share/fonts/truetype/thai/TlwgTypo-BoldOblique.ttf'
p1455
aS'/usr/share/fonts/truetype/freefont/FreeSerif.ttf'
p1456
aS'/usr/share/fonts/truetype/openoffice/opens___.ttf'
p1457
aS'/usr/share/fonts/truetype/msttcorefonts/Arial_Bold.ttf'
p1458
aS'/usr/share/fonts/truetype/ttf-japanese-gothic.ttf'
p1459
aS'/usr/share/fonts/truetype/ttf-liberation/LiberationMono-Regular.ttf'
p1460
aS'/usr/share/fonts/truetype/thai/Purisa-Bold.ttf'
p1461
aS'/usr/share/fonts/truetype/thai/Umpush-Oblique.ttf'
p1462
aS'/usr/share/fonts/truetype/msttcorefonts/timesbi.ttf'
p1463
aS'/usr/share/fonts/truetype/ttf-symbol-replacement/symbol-replacement.ttf/symbol.ttf'
p1464
aS'/usr/share/fonts/truetype/msttcorefonts/Comic_Sans_MS.ttf'
p1465
aS'/usr/share/fonts/truetype/msttcorefonts/Webdings.ttf'
p1466
aS'/usr/share/fonts/truetype/ttf-liberation/LiberationSerif-BoldItalic.ttf'
p1467
aS'/usr/share/fonts/truetype/thai/Sawasdee-Oblique.ttf'
p1468
aS'/usr/share/fonts/truetype/msttcorefonts/Arial_Bold_Italic.ttf'
p1469
aS'/usr/share/fonts/truetype/thai/Norasi-Bold.ttf'
p1470
aS'/usr/share/fonts/truetype/thai/Purisa-Oblique.ttf'
p1471
aS'/usr/share/fonts/truetype/freefont/FreeMonoBold.ttf'
p1472
aS'/usr/share/fonts/truetype/ttf-indic-fonts-core/lohit_gu.ttf'
p1473
aS'/usr/share/fonts/truetype/msttcorefonts/impact.ttf'
p1474
aS'/usr/share/fonts/truetype/thai/TlwgTypist-BoldOblique.ttf'
p1475
aS'/usr/share/fonts/truetype/ttf-kacst/KacstScreen.ttf'
p1476
aS'/usr/share/fonts/truetype/umefont/ume-pgs4.ttf'
p1477
aS'/usr/share/fonts/truetype/ttf-khmeros-core/KhmerOS.ttf'
p1478
aS'/usr/share/fonts/truetype/msttcorefonts/verdanab.ttf'
p1479
aS'/usr/share/fonts/truetype/thai/TlwgTypo-Bold.ttf'
p1480
aS'/usr/share/fonts/truetype/msttcorefonts/Trebuchet_MS_Bold_Italic.ttf'
p1481
aS'/usr/share/fonts/truetype/ttf-kacst/KacstTitleL.ttf'
p1482
aS'/usr/share/fonts/truetype/thai/Waree-Oblique.ttf'
p1483
aS'/usr/share/fonts/truetype/ttf-gfs-artemisia/GFSArtemisiaBold.otf'
p1484
aS'/usr/share/fonts/truetype/ttf-liberation/LiberationSerif-Regular.ttf'
p1485
aS'/usr/share/fonts/truetype/ttf-dejavu/DejaVuSans-ExtraLight.ttf'
p1486
aS'/usr/share/fonts/truetype/ttf-lyx/msam10.ttf'
p1487
aS'/usr/share/fonts/truetype/thai/Norasi-BoldItalic.ttf'
p1488
aS'/usr/share/fonts/truetype/thai/Norasi-BoldOblique.ttf'
p1489
aS'/usr/share/fonts/truetype/umefont/ume-pgo4.ttf'
p1490
aS'/usr/share/fonts/truetype/freefont/FreeSerifItalic.ttf'
p1491
aS'/usr/share/fonts/truetype/ttf-indic-fonts-core/MuktiNarrow.ttf'
p1492
aS'/usr/share/fonts/truetype/ubuntu-font-family/Ubuntu-L.ttf'
p1493
aS'/usr/share/fonts/truetype/thai/Norasi-Italic.ttf'
p1494
aS'/usr/share/fonts/truetype/umefont/ume-pgs5.ttf'
p1495
aS'/usr/share/fonts/truetype/ttf-dejavu/DejaVuSerifCondensed.ttf'
p1496
aS'/usr/share/fonts/truetype/msttcorefonts/Times_New_Roman_Bold.ttf'
p1497
aS'/usr/share/fonts/truetype/ttf-lyx/cmex10.ttf'
p1498
asS'_FontManager__default_weight'
p1499
g13
sS'ttf_lookup_cache'
p1500
(dp1501
sS'default_size'
p1502
NsS'defaultFont'
p1503
g1200
sS'afmfiles'
p1504
(lp1505
S'/usr/share/matplotlib/mpl-data/fonts/afm/phvl8a.afm'
p1506
aS'/usr/share/matplotlib/mpl-data/fonts/afm/pzcmi8a.afm'
p1507
aS'/usr/share/matplotlib/mpl-data/fonts/afm/pplb8a.afm'
p1508
aS'/usr/share/matplotlib/mpl-data/fonts/afm/putbi8a.afm'
p1509
aS'/usr/share/matplotlib/mpl-data/fonts/afm/phvro8an.afm'
p1510
aS'/usr/share/matplotlib/mpl-data/fonts/afm/pbkd8a.afm'
p1511
aS'/usr/share/matplotlib/mpl-data/fonts/afm/pncri8a.afm'
p1512
aS'/usr/share/matplotlib/mpl-data/fonts/afm/pcrb8a.afm'
p1513
aS'/usr/share/matplotlib/mpl-data/fonts/afm/pagdo8a.afm'
p1514
aS'/usr/share/matplotlib/mpl-data/fonts/afm/putb8a.afm'
p1515
aS'/usr/share/matplotlib/mpl-data/fonts/afm/pncb8a.afm'
p1516
aS'/usr/share/matplotlib/mpl-data/fonts/afm/pcrro8a.afm'
p1517
aS'/usr/share/matplotlib/mpl-data/fonts/afm/phvr8a.afm'
p1518
aS'/usr/share/matplotlib/mpl-data/fonts/afm/cmtt10.afm'
p1519
aS'/usr/share/matplotlib/mpl-data/fonts/afm/phvr8an.afm'
p1520
aS'/usr/share/matplotlib/mpl-data/fonts/afm/phvro8a.afm'
p1521
aS'/usr/share/matplotlib/mpl-data/fonts/afm/ptmr8a.afm'
p1522
aS'/usr/share/matplotlib/mpl-data/fonts/afm/pplbi8a.afm'
p1523
aS'/usr/share/matplotlib/mpl-data/fonts/afm/phvb8an.afm'
p1524
aS'/usr/share/matplotlib/mpl-data/fonts/afm/cmsy10.afm'
p1525
aS'/usr/share/matplotlib/mpl-data/fonts/afm/pagk8a.afm'
p1526
aS'/usr/share/matplotlib/mpl-data/fonts/afm/pcrr8a.afm'
p1527
aS'/usr/share/matplotlib/mpl-data/fonts/afm/cmmi10.afm'
p1528
aS'/usr/share/matplotlib/mpl-data/fonts/afm/pagko8a.afm'
p1529
aS'/usr/share/matplotlib/mpl-data/fonts/afm/pbkdi8a.afm'
p1530
aS'/usr/share/matplotlib/mpl-data/fonts/afm/phvbo8a.afm'
p1531
aS'/usr/share/matplotlib/mpl-data/fonts/afm/cmr10.afm'
p1532
aS'/usr/share/matplotlib/mpl-data/fonts/afm/psyr.afm'
p1533
aS'/usr/share/matplotlib/mpl-data/fonts/afm/phvlo8a.afm'
p1534
aS'/usr/share/matplotlib/mpl-data/fonts/afm/phvb8a.afm'
p1535
aS'/usr/share/matplotlib/mpl-data/fonts/afm/pzdr.afm'
p1536
aS'/usr/share/matplotlib/mpl-data/fonts/afm/ptmri8a.afm'
p1537
aS'/usr/share/matplotlib/mpl-data/fonts/afm/pplr8a.afm'
p1538
aS'/usr/share/matplotlib/mpl-data/fonts/afm/pbkl8a.afm'
p1539
aS'/usr/share/matplotlib/mpl-data/fonts/afm/pncbi8a.afm'
p1540
aS'/usr/share/matplotlib/mpl-data/fonts/afm/ptmb8a.afm'
p1541
aS'/usr/share/matplotlib/mpl-data/fonts/afm/putri8a.afm'
p1542
aS'/usr/share/matplotlib/mpl-data/fonts/afm/pplri8a.afm'
p1543
aS'/usr/share/matplotlib/mpl-data/fonts/afm/ptmbi8a.afm'
p1544
aS'/usr/share/matplotlib/mpl-data/fonts/afm/pbkli8a.afm'
p1545
aS'/usr/share/matplotlib/mpl-data/fonts/afm/putr8a.afm'
p1546
aS'/usr/share/matplotlib/mpl-data/fonts/afm/pagd8a.afm'
p1547
aS'/usr/share/matplotlib/mpl-data/fonts/afm/pncr8a.afm'
p1548
aS'/usr/share/matplotlib/mpl-data/fonts/afm/cmex10.afm'
p1549
aS'/usr/share/matplotlib/mpl-data/fonts/afm/phvbo8an.afm'
p1550
aS'/usr/share/matplotlib/mpl-data/fonts/afm/pcrbo8a.afm'
p1551
aS'/usr/share/fonts/X11/Type1/lmtt10.afm'
p1552
aS'/usr/share/fonts/X11/Type1/qcsri.afm'
p1553
aS'/usr/share/fonts/X11/Type1/lmssqo8.afm'
p1554
aS'/usr/share/fonts/type1/gsfonts/b018015l.afm'
p1555
aS'/usr/share/fonts/X11/Type1/lmbxo10.afm'
p1556
aS'/usr/share/fonts/type1/gsfonts/n022024l.afm'
p1557
aS'/usr/share/fonts/X11/Type1/lmtlc10.afm'
p1558
aS'/usr/share/fonts/type1/gsfonts/n019004l.afm'
p1559
aS'/usr/share/fonts/X11/Type1/lmtk10.afm'
p1560
aS'/usr/share/fonts/X11/Type1/qbkr.afm'
p1561
aS'/usr/share/fonts/X11/Type1/lmdunh10.afm'
p1562
aS'/usr/share/fonts/type1/gsfonts/n019003l.afm'
p1563
aS'/usr/share/fonts/type1/gsfonts/p052004l.afm'
p1564
aS'/usr/share/fonts/type1/gsfonts/a010015l.afm'
p1565
aS'/usr/share/fonts/X11/Type1/qcrr.afm'
p1566
aS'/usr/share/fonts/type1/gsfonts/c059036l.afm'
p1567
aS'/usr/share/fonts/type1/gsfonts/c059013l.afm'
p1568
aS'/usr/share/fonts/X11/Type1/qtmb.afm'
p1569
aS'/usr/share/fonts/X11/Type1/qhvcb.afm'
p1570
aS'/usr/share/fonts/X11/Type1/lmssbx10.afm'
p1571
aS'/usr/share/fonts/X11/Type1/lmvtlo10.afm'
p1572
aS'/usr/share/fonts/X11/Type1/lmtcso10.afm'
p1573
aS'/usr/share/fonts/X11/Type1/lmtti10.afm'
p1574
aS'/usr/share/fonts/X11/Type1/c0419bt_.afm'
p1575
aS'/usr/share/fonts/type1/gsfonts/n021024l.afm'
p1576
aS'/usr/share/fonts/type1/gsfonts/n019024l.afm'
p1577
aS'/usr/share/fonts/X11/Type1/qhvbi.afm'
p1578
aS'/usr/share/fonts/X11/Type1/qcsb.afm'
p1579
aS'/usr/share/fonts/X11/Type1/lmbx10.afm'
p1580
aS'/usr/share/fonts/type1/gsfonts/d050000l.afm'
p1581
aS'/usr/share/fonts/X11/Type1/lmssdo10.afm'
p1582
aS'/usr/share/fonts/X11/Type1/lmssqbx8.afm'
p1583
aS'/usr/share/fonts/X11/Type1/qhvb.afm'
p1584
aS'/usr/share/fonts/X11/Type1/c0649bt_.afm'
p1585
aS'/usr/share/fonts/X11/Type1/c0648bt_.afm'
p1586
aS'/usr/share/fonts/type1/gsfonts/z003034l.afm'
p1587
aS'/usr/share/fonts/X11/Type1/qhvr.afm'
p1588
aS'/usr/share/fonts/X11/Type1/lmbxi10.afm'
p1589
aS'/usr/share/fonts/type1/gsfonts/b018012l.afm'
p1590
aS'/usr/share/fonts/X11/Type1/lmro10.afm'
p1591
aS'/usr/share/fonts/X11/Type1/qplr.afm'
p1592
aS'/usr/share/fonts/X11/Type1/qcsr.afm'
p1593
aS'/usr/share/fonts/type1/gsfonts/a010013l.afm'
p1594
aS'/usr/share/fonts/X11/Type1/c0583bt_.afm'
p1595
aS'/usr/share/fonts/X11/Type1/qagri.afm'
p1596
aS'/usr/share/fonts/X11/Type1/qbkbi.afm'
p1597
aS'/usr/share/fonts/X11/Type1/lmcsc10.afm'
p1598
aS'/usr/share/fonts/X11/Type1/qcrbi.afm'
p1599
aS'/usr/share/fonts/X11/Type1/qcrb.afm'
p1600
aS'/usr/share/fonts/X11/Type1/lmssqbo8.afm'
p1601
aS'/usr/share/fonts/type1/gsfonts/p052003l.afm'
p1602
aS'/usr/share/fonts/type1/gsfonts/b018032l.afm'
p1603
aS'/usr/share/fonts/X11/Type1/lmvtk10.afm'
p1604
aS'/usr/share/fonts/type1/gsfonts/n021023l.afm'
p1605
aS'/usr/share/fonts/X11/Type1/qhvri.afm'
p1606
aS'/usr/share/fonts/X11/Type1/lmtlo10.afm'
p1607
aS'/usr/share/fonts/X11/Type1/lmvtl10.afm'
p1608
aS'/usr/share/fonts/type1/gsfonts/n021003l.afm'
p1609
aS'/usr/share/fonts/X11/Type1/lmsso10.afm'
p1610
aS'/usr/share/fonts/type1/gsfonts/s050000l.afm'
p1611
aS'/usr/share/fonts/type1/gsfonts/n021004l.afm'
p1612
aS'/usr/share/fonts/type1/gsfonts/p052024l.afm'
p1613
aS'/usr/share/fonts/X11/Type1/qtmri.afm'
p1614
aS'/usr/share/fonts/X11/Type1/qbkb.afm'
p1615
aS'/usr/share/fonts/type1/gsfonts/n019063l.afm'
p1616
aS'/usr/share/fonts/X11/Type1/qtmr.afm'
p1617
aS'/usr/share/fonts/X11/Type1/lmtcsc10.afm'
p1618
aS'/usr/share/fonts/X11/Type1/lmcsco10.afm'
p1619
aS'/usr/share/fonts/X11/Type1/qagb.afm'
p1620
aS'/usr/share/fonts/X11/Type1/c0633bt_.afm'
p1621
aS'/usr/share/fonts/X11/Type1/lmvtto10.afm'
p1622
aS'/usr/share/fonts/X11/Type1/lmss10.afm'
p1623
aS'/usr/share/fonts/X11/Type1/lmvtt10.afm'
p1624
aS'/usr/share/fonts/type1/gsfonts/b018035l.afm'
p1625
aS'/usr/share/fonts/X11/Type1/lmduno10.afm'
p1626
aS'/usr/share/fonts/X11/Type1/qtmbi.afm'
p1627
aS'/usr/share/fonts/X11/Type1/qcsbi.afm'
p1628
aS'/usr/share/fonts/type1/gsfonts/n022004l.afm'
p1629
aS'/usr/share/fonts/type1/mathml/Symbol.afm'
p1630
aS'/usr/share/fonts/X11/Type1/qhvcbi.afm'
p1631
aS'/usr/share/fonts/X11/Type1/lmri10.afm'
p1632
aS'/usr/share/fonts/X11/Type1/Symbol.afm'
p1633
aS'/usr/share/fonts/X11/Type1/lmr10.afm'
p1634
aS'/usr/share/fonts/X11/Type1/lmb10.afm'
p1635
aS'/usr/share/fonts/X11/Type1/lmtl10.afm'
p1636
aS'/usr/share/fonts/X11/Type1/qplri.afm'
p1637
aS'/usr/share/fonts/X11/Type1/qagbi.afm'
p1638
aS'/usr/share/fonts/X11/Type1/qhvcr.afm'
p1639
aS'/usr/share/fonts/X11/Type1/lmtlco10.afm'
p1640
aS'/usr/share/fonts/type1/gsfonts/c059016l.afm'
p1641
aS'/usr/share/fonts/X11/Type1/qplb.afm'
p1642
aS'/usr/share/fonts/type1/gsfonts/n019044l.afm'
p1643
aS'/usr/share/fonts/type1/gsfonts/n022003l.afm'
p1644
aS'/usr/share/fonts/type1/gsfonts/a010033l.afm'
p1645
aS'/usr/share/fonts/X11/Type1/lmvtko10.afm'
p1646
aS'/usr/share/fonts/type1/gsfonts/c059033l.afm'
p1647
aS'/usr/share/fonts/X11/Type1/qcrri.afm'
p1648
aS'/usr/share/fonts/type1/gsfonts/n019064l.afm'
p1649
aS'/usr/share/fonts/X11/Type1/c0582bt_.afm'
p1650
aS'/usr/share/fonts/X11/Type1/lmssq8.afm'
p1651
aS'/usr/share/fonts/X11/Type1/lmssbo10.afm'
p1652
aS'/usr/share/fonts/X11/Type1/qagr.afm'
p1653
aS'/usr/share/fonts/type1/gsfonts/n019043l.afm'
p1654
aS'/usr/share/fonts/type1/gsfonts/n019023l.afm'
p1655
aS'/usr/share/fonts/X11/Type1/lmtko10.afm'
p1656
aS'/usr/share/fonts/X11/Type1/c0611bt_.afm'
p1657
aS'/usr/share/fonts/X11/Type1/lmbo10.afm'
p1658
aS'/usr/share/fonts/type1/gsfonts/p052023l.afm'
p1659
aS'/usr/share/fonts/X11/Type1/qplbi.afm'
p1660
aS'/usr/share/fonts/X11/Type1/lmssdc10.afm'
p1661
aS'/usr/share/fonts/X11/Type1/lmtto10.afm'
p1662
aS'/usr/share/fonts/type1/gsfonts/n022023l.afm'
p1663
aS'/usr/share/fonts/X11/Type1/qhvcri.afm'
p1664
aS'/usr/share/fonts/type1/gsfonts/a010035l.afm'
p1665
aS'/usr/share/fonts/X11/Type1/qbkri.afm'
p1666
aS'/usr/share/fonts/X11/Type1/c0632bt_.afm'
p1667
aS'/usr/share/fonts/X11/Type1/lmu10.afm'
p1668
asS'afmlist'
p1669
(lp1670
g7
(g8
g9
NtRp1671
(dp1672
g12
g13
sg14
S'Helvetica'
p1673
sg16
I200
sg17
g13
sg18
g13
sg19
g1506
sg21
g22
sbag7
(g8
g9
NtRp1674
(dp1675
g12
g29
sg14
S'ITC Zapf Chancery'
p1676
sg16
I500
sg17
g13
sg18
g13
sg19
g1507
sg21
g22
sbag7
(g8
g9
NtRp1677
(dp1678
g12
g13
sg14
S'Palatino'
p1679
sg16
I700
sg17
g13
sg18
g13
sg19
g1508
sg21
g22
sbag7
(g8
g9
NtRp1680
(dp1681
g12
g29
sg14
S'Utopia'
p1682
sg16
I700
sg17
g13
sg18
g13
sg19
g1509
sg21
g22
sbag7
(g8
g9
NtRp1683
(dp1684
g12
g29
sg14
S'Helvetica'
p1685
sg16
I500
sg17
g13
sg18
g13
sg19
g1510
sg21
g22
sbag7
(g8
g9
NtRp1686
(dp1687
g12
g13
sg14
S'ITC Bookman'
p1688
sg16
I600
sg17
g13
sg18
g13
sg19
g1511
sg21
g22
sbag7
(g8
g9
NtRp1689
(dp1690
g12
g29
sg14
S'New Century Schoolbook'
p1691
sg16
I500
sg17
g13
sg18
g13
sg19
g1512
sg21
g22
sbag7
(g8
g9
NtRp1692
(dp1693
g12
g13
sg14
S'Courier'
p1694
sg16
I700
sg17
g13
sg18
g13
sg19
g1513
sg21
g22
sbag7
(g8
g9
NtRp1695
(dp1696
g12
g29
sg14
S'ITC Avant Garde Gothic'
p1697
sg16
I600
sg17
g13
sg18
g13
sg19
g1514
sg21
g22
sbag7
(g8
g9
NtRp1698
(dp1699
g12
g13
sg14
S'Utopia'
p1700
sg16
I700
sg17
g13
sg18
g13
sg19
g1515
sg21
g22
sbag7
(g8
g9
NtRp1701
(dp1702
g12
g13
sg14
S'New Century Schoolbook'
p1703
sg16
I700
sg17
g13
sg18
g13
sg19
g1516
sg21
g22
sbag7
(g8
g9
NtRp1704
(dp1705
g12
g29
sg14
S'Courier'
p1706
sg16
I500
sg17
g13
sg18
g13
sg19
g1517
sg21
g22
sbag7
(g8
g9
NtRp1707
(dp1708
g12
g13
sg14
S'Helvetica'
p1709
sg16
I500
sg17
g13
sg18
g13
sg19
g1518
sg21
g22
sbag7
(g8
g9
NtRp1710
(dp1711
g12
g13
sg14
S'Computer Modern'
p1712
sg16
I500
sg17
g13
sg18
g13
sg19
g1519
sg21
g22
sbag7
(g8
g9
NtRp1713
(dp1714
g12
g13
sg14
S'Helvetica'
p1715
sg16
I500
sg17
g13
sg18
g13
sg19
g1520
sg21
g22
sbag7
(g8
g9
NtRp1716
(dp1717
g12
g29
sg14
S'Helvetica'
p1718
sg16
I500
sg17
g13
sg18
g13
sg19
g1521
sg21
g22
sbag7
(g8
g9
NtRp1719
(dp1720
g12
g13
sg14
S'Times'
p1721
sg16
I500
sg17
g13
sg18
g13
sg19
g1522
sg21
g22
sbag7
(g8
g9
NtRp1722
(dp1723
g12
g29
sg14
S'Palatino'
p1724
sg16
I700
sg17
g13
sg18
g13
sg19
g1523
sg21
g22
sbag7
(g8
g9
NtRp1725
(dp1726
g12
g13
sg14
S'Helvetica'
p1727
sg16
I700
sg17
g13
sg18
g13
sg19
g1524
sg21
g22
sbag7
(g8
g9
NtRp1728
(dp1729
g12
g29
sg14
S'Computer Modern'
p1730
sg16
I500
sg17
g13
sg18
g13
sg19
g1525
sg21
g22
sbag7
(g8
g9
NtRp1731
(dp1732
g12
g13
sg14
S'ITC Avant Garde Gothic'
p1733
sg16
I400
sg17
g13
sg18
g13
sg19
g1526
sg21
g22
sbag7
(g8
g9
NtRp1734
(dp1735
g12
g13
sg14
S'Courier'
p1736
sg16
I500
sg17
g13
sg18
g13
sg19
g1527
sg21
g22
sbag7
(g8
g9
NtRp1737
(dp1738
g12
g29
sg14
S'Computer Modern'
p1739
sg16
I500
sg17
g13
sg18
g13
sg19
g1528
sg21
g22
sbag7
(g8
g9
NtRp1740
(dp1741
g12
g29
sg14
S'ITC Avant Garde Gothic'
p1742
sg16
I400
sg17
g13
sg18
g13
sg19
g1529
sg21
g22
sbag7
(g8
g9
NtRp1743
(dp1744
g12
g29
sg14
S'ITC Bookman'
p1745
sg16
I600
sg17
g13
sg18
g13
sg19
g1530
sg21
g22
sbag7
(g8
g9
NtRp1746
(dp1747
g12
g29
sg14
S'Helvetica'
p1748
sg16
I700
sg17
g13
sg18
g13
sg19
g1531
sg21
g22
sbag7
(g8
g9
NtRp1749
(dp1750
g12
g13
sg14
S'Computer Modern'
p1751
sg16
I500
sg17
g13
sg18
g13
sg19
g1532
sg21
g22
sbag7
(g8
g9
NtRp1752
(dp1753
g12
g13
sg14
S'Symbol'
p1754
sg16
I500
sg17
g13
sg18
g13
sg19
g1533
sg21
g22
sbag7
(g8
g9
NtRp1755
(dp1756
g12
g29
sg14
S'Helvetica'
p1757
sg16
I200
sg17
g13
sg18
g13
sg19
g1534
sg21
g22
sbag7
(g8
g9
NtRp1758
(dp1759
g12
g13
sg14
S'Helvetica'
p1760
sg16
I700
sg17
g13
sg18
g13
sg19
g1535
sg21
g22
sbag7
(g8
g9
NtRp1761
(dp1762
g12
g13
sg14
S'ITC Zapf Dingbats'
p1763
sg16
I500
sg17
g13
sg18
g13
sg19
g1536
sg21
g22
sbag7
(g8
g9
NtRp1764
(dp1765
g12
g29
sg14
S'Times'
p1766
sg16
I500
sg17
g13
sg18
g13
sg19
g1537
sg21
g22
sbag7
(g8
g9
NtRp1767
(dp1768
g12
g13
sg14
S'Palatino'
p1769
sg16
I500
sg17
g13
sg18
g13
sg19
g1538
sg21
g22
sbag7
(g8
g9
NtRp1770
(dp1771
g12
g13
sg14
S'ITC Bookman'
p1772
sg16
I200
sg17
g13
sg18
g13
sg19
g1539
sg21
g22
sbag7
(g8
g9
NtRp1773
(dp1774
g12
g29
sg14
S'New Century Schoolbook'
p1775
sg16
I700
sg17
g13
sg18
g13
sg19
g1540
sg21
g22
sbag7
(g8
g9
NtRp1776
(dp1777
g12
g13
sg14
S'Times'
p1778
sg16
I700
sg17
g13
sg18
g13
sg19
g1541
sg21
g22
sbag7
(g8
g9
NtRp1779
(dp1780
g12
g29
sg14
S'Utopia'
p1781
sg16
I400
sg17
g13
sg18
g13
sg19
g1542
sg21
g22
sbag7
(g8
g9
NtRp1782
(dp1783
g12
g29
sg14
S'Palatino'
p1784
sg16
I500
sg17
g13
sg18
g13
sg19
g1543
sg21
g22
sbag7
(g8
g9
NtRp1785
(dp1786
g12
g29
sg14
S'Times'
p1787
sg16
I700
sg17
g13
sg18
g13
sg19
g1544
sg21
g22
sbag7
(g8
g9
NtRp1788
(dp1789
g12
g29
sg14
S'ITC Bookman'
p1790
sg16
I200
sg17
g13
sg18
g13
sg19
g1545
sg21
g22
sbag7
(g8
g9
NtRp1791
(dp1792
g12
g13
sg14
S'Utopia'
p1793
sg16
I400
sg17
g13
sg18
g13
sg19
g1546
sg21
g22
sbag7
(g8
g9
NtRp1794
(dp1795
g12
g13
sg14
S'ITC Avant Garde Gothic'
p1796
sg16
I600
sg17
g13
sg18
g13
sg19
g1547
sg21
g22
sbag7
(g8
g9
NtRp1797
(dp1798
g12
g13
sg14
S'New Century Schoolbook'
p1799
sg16
I500
sg17
g13
sg18
g13
sg19
g1548
sg21
g22
sbag7
(g8
g9
NtRp1800
(dp1801
g12
g13
sg14
S'Computer Modern'
p1802
sg16
I500
sg17
g13
sg18
g13
sg19
g1549
sg21
g22
sbag7
(g8
g9
NtRp1803
(dp1804
g12
g29
sg14
S'Helvetica'
p1805
sg16
I700
sg17
g13
sg18
g13
sg19
g1550
sg21
g22
sbag7
(g8
g9
NtRp1806
(dp1807
g12
g29
sg14
S'Courier'
p1808
sg16
I700
sg17
g13
sg18
g13
sg19
g1551
sg21
g22
sbag7
(g8
g9
NtRp1809
(dp1810
g12
g13
sg14
S'LMMono10'
p1811
sg16
I400
sg17
g13
sg18
g13
sg19
g1552
sg21
g22
sbag7
(g8
g9
NtRp1812
(dp1813
g12
g29
sg14
S'TeXGyreSchola'
p1814
sg16
I400
sg17
g13
sg18
g13
sg19
g1553
sg21
g22
sbag7
(g8
g9
NtRp1815
(dp1816
g12
g29
sg14
S'LMSansQuot8'
p1817
sg16
I400
sg17
g13
sg18
g13
sg19
g1554
sg21
g22
sbag7
(g8
g9
NtRp1818
(dp1819
g12
g13
sg14
S'URW Bookman L'
p1820
sg16
I700
sg17
g13
sg18
g13
sg19
g1555
sg21
g22
sbag7
(g8
g9
NtRp1821
(dp1822
g12
g29
sg14
S'LMRomanSlant10'
p1823
sg16
I700
sg17
g13
sg18
g13
sg19
g1556
sg21
g22
sbag7
(g8
g9
NtRp1824
(dp1825
g12
g29
sg14
S'Nimbus Mono L'
p1826
sg16
I700
sg17
g13
sg18
g13
sg19
g1557
sg21
g22
sbag7
(g8
g9
NtRp1827
(dp1828
g12
g13
sg14
S'LMMonoLtCond10'
p1829
sg16
I200
sg17
g13
sg18
g13
sg19
g1558
sg21
g22
sbag7
(g8
g9
NtRp1830
(dp1831
g12
g13
sg14
S'Nimbus Sans L'
p1832
sg16
I700
sg17
g13
sg18
g13
sg19
g1559
sg21
g22
sbag7
(g8
g9
NtRp1833
(dp1834
g12
g13
sg14
S'LMMonoLt10'
p1835
sg16
I700
sg17
g13
sg18
g13
sg19
g1560
sg21
g22
sbag7
(g8
g9
NtRp1836
(dp1837
g12
g13
sg14
S'TeXGyreBonum'
p1838
sg16
I400
sg17
g13
sg18
g13
sg19
g1561
sg21
g22
sbag7
(g8
g9
NtRp1839
(dp1840
g12
g13
sg14
S'LMRomanDunh10'
p1841
sg16
I400
sg17
g13
sg18
g13
sg19
g1562
sg21
g22
sbag7
(g8
g9
NtRp1842
(dp1843
g12
g13
sg14
S'Nimbus Sans L'
p1844
sg16
I400
sg17
g13
sg18
g13
sg19
g1563
sg21
g22
sbag7
(g8
g9
NtRp1845
(dp1846
g12
g13
sg14
S'URW Palladio L'
p1847
sg16
I700
sg17
g13
sg18
g13
sg19
g1564
sg21
g22
sbag7
(g8
g9
NtRp1848
(dp1849
g12
g13
sg14
S'URW Gothic L'
p1850
sg16
I600
sg17
g13
sg18
g13
sg19
g1565
sg21
g22
sbag7
(g8
g9
NtRp1851
(dp1852
g12
g13
sg14
S'TeXGyreCursor'
p1853
sg16
I400
sg17
g13
sg18
g13
sg19
g1566
sg21
g22
sbag7
(g8
g9
NtRp1854
(dp1855
g12
g29
sg14
S'Century Schoolbook L'
p1856
sg16
I700
sg17
g13
sg18
g13
sg19
g1567
sg21
g22
sbag7
(g8
g9
NtRp1857
(dp1858
g12
g13
sg14
S'Century Schoolbook L'
p1859
sg16
I500
sg17
g13
sg18
g13
sg19
g1568
sg21
g22
sbag7
(g8
g9
NtRp1860
(dp1861
g12
g13
sg14
S'TeXGyreTermes'
p1862
sg16
I700
sg17
g13
sg18
g13
sg19
g1569
sg21
g22
sbag7
(g8
g9
NtRp1863
(dp1864
g12
g13
sg14
S'TeXGyreHerosCondensed'
p1865
sg16
I700
sg17
g13
sg18
g13
sg19
g1570
sg21
g22
sbag7
(g8
g9
NtRp1866
(dp1867
g12
g13
sg14
S'LMSans10'
p1868
sg16
I700
sg17
g13
sg18
g13
sg19
g1571
sg21
g22
sbag7
(g8
g9
NtRp1869
(dp1870
g12
g29
sg14
S'LMMonoPropLt10'
p1871
sg16
I200
sg17
g13
sg18
g13
sg19
g1572
sg21
g22
sbag7
(g8
g9
NtRp1872
(dp1873
g12
g29
sg14
S'LMMonoCaps10'
p1874
sg16
I400
sg17
g13
sg18
g13
sg19
g1573
sg21
g22
sbag7
(g8
g9
NtRp1875
(dp1876
g12
g29
sg14
S'LMMono10'
p1877
sg16
I400
sg17
g13
sg18
g13
sg19
g1574
sg21
g22
sbag7
(g8
g9
NtRp1878
(dp1879
g12
g13
sg14
S'Courier 10 Pitch'
p1880
sg16
I400
sg17
g13
sg18
g13
sg19
g1575
sg21
g22
sbag7
(g8
g9
NtRp1881
(dp1882
g12
g29
sg14
S'Nimbus Roman No9 L'
p1883
sg16
I700
sg17
g13
sg18
g13
sg19
g1576
sg21
g22
sbag7
(g8
g9
NtRp1884
(dp1885
g12
g29
sg14
S'Nimbus Sans L'
p1886
sg16
I700
sg17
g13
sg18
g13
sg19
g1577
sg21
g22
sbag7
(g8
g9
NtRp1887
(dp1888
g12
g29
sg14
S'TeXGyreHeros'
p1889
sg16
I700
sg17
g13
sg18
g13
sg19
g1578
sg21
g22
sbag7
(g8
g9
NtRp1890
(dp1891
g12
g13
sg14
S'TeXGyreSchola'
p1892
sg16
I700
sg17
g13
sg18
g13
sg19
g1579
sg21
g22
sbag7
(g8
g9
NtRp1893
(dp1894
g12
g13
sg14
S'LMRoman10'
p1895
sg16
I700
sg17
g13
sg18
g13
sg19
g1580
sg21
g22
sbag7
(g8
g9
NtRp1896
(dp1897
g12
g13
sg14
S'Dingbats'
p1898
sg16
I400
sg17
g13
sg18
g13
sg19
g1581
sg21
g22
sbag7
(g8
g9
NtRp1899
(dp1900
g12
g29
sg14
S'LMSansDemiCond10'
p1901
sg16
I600
sg17
g13
sg18
g13
sg19
g1582
sg21
g22
sbag7
(g8
g9
NtRp1902
(dp1903
g12
g13
sg14
S'LMSansQuot8'
p1904
sg16
I700
sg17
g13
sg18
g13
sg19
g1583
sg21
g22
sbag7
(g8
g9
NtRp1905
(dp1906
g12
g13
sg14
S'TeXGyreHeros'
p1907
sg16
I700
sg17
g13
sg18
g13
sg19
g1584
sg21
g22
sbag7
(g8
g9
NtRp1908
(dp1909
g12
g29
sg14
S'Bitstream Charter'
p1910
sg16
I400
sg17
g13
sg18
g13
sg19
g1585
sg21
g22
sbag7
(g8
g9
NtRp1911
(dp1912
g12
g13
sg14
S'Bitstream Charter'
p1913
sg16
I400
sg17
g13
sg18
g13
sg19
g1586
sg21
g22
sbag7
(g8
g9
NtRp1914
(dp1915
g12
g29
sg14
S'URW Chancery L'
p1916
sg16
I500
sg17
g13
sg18
g13
sg19
g1587
sg21
g22
sbag7
(g8
g9
NtRp1917
(dp1918
g12
g13
sg14
S'TeXGyreHeros'
p1919
sg16
I400
sg17
g13
sg18
g13
sg19
g1588
sg21
g22
sbag7
(g8
g9
NtRp1920
(dp1921
g12
g29
sg14
S'LMRoman10'
p1922
sg16
I700
sg17
g13
sg18
g13
sg19
g1589
sg21
g22
sbag7
(g8
g9
NtRp1923
(dp1924
g12
g13
sg14
S'URW Bookman L'
p1925
sg16
I400
sg17
g13
sg18
g13
sg19
g1590
sg21
g22
sbag7
(g8
g9
NtRp1926
(dp1927
g12
g29
sg14
S'LMRomanSlant10'
p1928
sg16
I400
sg17
g13
sg18
g13
sg19
g1591
sg21
g22
sbag7
(g8
g9
NtRp1929
(dp1930
g12
g13
sg14
S'TeXGyrePagella'
p1931
sg16
I400
sg17
g13
sg18
g13
sg19
g1592
sg21
g22
sbag7
(g8
g9
NtRp1932
(dp1933
g12
g13
sg14
S'TeXGyreSchola'
p1934
sg16
I400
sg17
g13
sg18
g13
sg19
g1593
sg21
g22
sbag7
(g8
g9
NtRp1935
(dp1936
g12
g13
sg14
S'URW Gothic L'
p1937
sg16
I400
sg17
g13
sg18
g13
sg19
g1594
sg21
g22
sbag7
(g8
g9
NtRp1938
(dp1939
g12
g13
sg14
S'Courier 10 Pitch'
p1940
sg16
I700
sg17
g13
sg18
g13
sg19
g1595
sg21
g22
sbag7
(g8
g9
NtRp1941
(dp1942
g12
g29
sg14
S'TeXGyreAdventor'
p1943
sg16
I400
sg17
g13
sg18
g13
sg19
g1596
sg21
g22
sbag7
(g8
g9
NtRp1944
(dp1945
g12
g29
sg14
S'TeXGyreBonum'
p1946
sg16
I700
sg17
g13
sg18
g13
sg19
g1597
sg21
g22
sbag7
(g8
g9
NtRp1947
(dp1948
g12
g13
sg14
S'LMRomanCaps10'
p1949
sg16
I400
sg17
g13
sg18
g13
sg19
g1598
sg21
g22
sbag7
(g8
g9
NtRp1950
(dp1951
g12
g29
sg14
S'TeXGyreCursor'
p1952
sg16
I700
sg17
g13
sg18
g13
sg19
g1599
sg21
g22
sbag7
(g8
g9
NtRp1953
(dp1954
g12
g13
sg14
S'TeXGyreCursor'
p1955
sg16
I700
sg17
g13
sg18
g13
sg19
g1600
sg21
g22
sbag7
(g8
g9
NtRp1956
(dp1957
g12
g29
sg14
S'LMSansQuot8'
p1958
sg16
I700
sg17
g13
sg18
g13
sg19
g1601
sg21
g22
sbag7
(g8
g9
NtRp1959
(dp1960
g12
g13
sg14
S'URW Palladio L'
p1961
sg16
I500
sg17
g13
sg18
g13
sg19
g1602
sg21
g22
sbag7
(g8
g9
NtRp1962
(dp1963
g12
g29
sg14
S'URW Bookman L'
p1964
sg16
I400
sg17
g13
sg18
g13
sg19
g1603
sg21
g22
sbag7
(g8
g9
NtRp1965
(dp1966
g12
g13
sg14
S'LMMonoPropLt10'
p1967
sg16
I700
sg17
g13
sg18
g13
sg19
g1604
sg21
g22
sbag7
(g8
g9
NtRp1968
(dp1969
g12
g29
sg14
S'Nimbus Roman No9 L'
p1970
sg16
I400
sg17
g13
sg18
g13
sg19
g1605
sg21
g22
sbag7
(g8
g9
NtRp1971
(dp1972
g12
g29
sg14
S'TeXGyreHeros'
p1973
sg16
I400
sg17
g13
sg18
g13
sg19
g1606
sg21
g22
sbag7
(g8
g9
NtRp1974
(dp1975
g12
g29
sg14
S'LMMonoLt10'
p1976
sg16
I200
sg17
g13
sg18
g13
sg19
g1607
sg21
g22
sbag7
(g8
g9
NtRp1977
(dp1978
g12
g13
sg14
S'LMMonoPropLt10'
p1979
sg16
I200
sg17
g13
sg18
g13
sg19
g1608
sg21
g22
sbag7
(g8
g9
NtRp1980
(dp1981
g12
g13
sg14
S'Nimbus Roman No9 L'
p1982
sg16
I400
sg17
g13
sg18
g13
sg19
g1609
sg21
g22
sbag7
(g8
g9
NtRp1983
(dp1984
g12
g29
sg14
S'LMSans10'
p1985
sg16
I400
sg17
g13
sg18
g13
sg19
g1610
sg21
g22
sbag7
(g8
g9
NtRp1986
(dp1987
g12
g13
sg14
S'Standard Symbols L'
p1988
sg16
I400
sg17
g13
sg18
g13
sg19
g1611
sg21
g22
sbag7
(g8
g9
NtRp1989
(dp1990
g12
g13
sg14
S'Nimbus Roman No9 L'
p1991
sg16
I700
sg17
g13
sg18
g13
sg19
g1612
sg21
g22
sbag7
(g8
g9
NtRp1992
(dp1993
g12
g29
sg14
S'URW Palladio L'
p1994
sg16
I700
sg17
g13
sg18
g13
sg19
g1613
sg21
g22
sbag7
(g8
g9
NtRp1995
(dp1996
g12
g29
sg14
S'TeXGyreTermes'
p1997
sg16
I400
sg17
g13
sg18
g13
sg19
g1614
sg21
g22
sbag7
(g8
g9
NtRp1998
(dp1999
g12
g13
sg14
S'TeXGyreBonum'
p2000
sg16
I700
sg17
g13
sg18
g13
sg19
g1615
sg21
g22
sbag7
(g8
g9
NtRp2001
(dp2002
g12
g29
sg14
S'Nimbus Sans L'
p2003
sg16
I400
sg17
g13
sg18
g13
sg19
g1616
sg21
g22
sbag7
(g8
g9
NtRp2004
(dp2005
g12
g13
sg14
S'TeXGyreTermes'
p2006
sg16
I400
sg17
g13
sg18
g13
sg19
g1617
sg21
g22
sbag7
(g8
g9
NtRp2007
(dp2008
g12
g13
sg14
S'LMMonoCaps10'
p2009
sg16
I400
sg17
g13
sg18
g13
sg19
g1618
sg21
g22
sbag7
(g8
g9
NtRp2010
(dp2011
g12
g29
sg14
S'LMRomanCaps10'
p2012
sg16
I400
sg17
g13
sg18
g13
sg19
g1619
sg21
g22
sbag7
(g8
g9
NtRp2013
(dp2014
g12
g13
sg14
S'TeXGyreAdventor'
p2015
sg16
I700
sg17
g13
sg18
g13
sg19
g1620
sg21
g22
sbag7
(g8
g9
NtRp2016
(dp2017
g12
g29
sg14
S'Bitstream Charter'
p2018
sg16
I700
sg17
g13
sg18
g13
sg19
g1621
sg21
g22
sbag7
(g8
g9
NtRp2019
(dp2020
g12
g29
sg14
S'LMMonoProp10'
p2021
sg16
I400
sg17
g13
sg18
g13
sg19
g1622
sg21
g22
sbag7
(g8
g9
NtRp2022
(dp2023
g12
g13
sg14
S'LMSans10'
p2024
sg16
I400
sg17
g13
sg18
g13
sg19
g1623
sg21
g22
sbag7
(g8
g9
NtRp2025
(dp2026
g12
g13
sg14
S'LMMonoProp10'
p2027
sg16
I400
sg17
g13
sg18
g13
sg19
g1624
sg21
g22
sbag7
(g8
g9
NtRp2028
(dp2029
g12
g29
sg14
S'URW Bookman L'
p2030
sg16
I700
sg17
g13
sg18
g13
sg19
g1625
sg21
g22
sbag7
(g8
g9
NtRp2031
(dp2032
g12
g29
sg14
S'LMRomanDunh10'
p2033
sg16
I400
sg17
g13
sg18
g13
sg19
g1626
sg21
g22
sbag7
(g8
g9
NtRp2034
(dp2035
g12
g29
sg14
S'TeXGyreTermes'
p2036
sg16
I700
sg17
g13
sg18
g13
sg19
g1627
sg21
g22
sbag7
(g8
g9
NtRp2037
(dp2038
g12
g29
sg14
S'TeXGyreSchola'
p2039
sg16
I400
sg17
g13
sg18
g13
sg19
g1628
sg21
g22
sbag7
(g8
g9
NtRp2040
(dp2041
g12
g13
sg14
S'Nimbus Mono L'
p2042
sg16
I700
sg17
g13
sg18
g13
sg19
g1629
sg21
g22
sbag7
(g8
g9
NtRp2043
(dp2044
g12
g13
sg14
S'Symbol'
p2045
sg16
I400
sg17
g13
sg18
g13
sg19
g1630
sg21
g22
sbag7
(g8
g9
NtRp2046
(dp2047
g12
g29
sg14
S'TeXGyreHerosCondensed'
p2048
sg16
I700
sg17
g13
sg18
g13
sg19
g1631
sg21
g22
sbag7
(g8
g9
NtRp2049
(dp2050
g12
g29
sg14
S'LMRoman10'
p2051
sg16
I400
sg17
g13
sg18
g13
sg19
g1632
sg21
g22
sbag7
(g8
g9
NtRp2052
(dp2053
g12
g13
sg14
S'LMRoman10'
p2054
sg16
I400
sg17
g13
sg18
g13
sg19
g1634
sg21
g22
sbag7
(g8
g9
NtRp2055
(dp2056
g12
g13
sg14
S'LMRomanDemi10'
p2057
sg16
I600
sg17
g13
sg18
g13
sg19
g1635
sg21
g22
sbag7
(g8
g9
NtRp2058
(dp2059
g12
g13
sg14
S'LMMonoLt10'
p2060
sg16
I200
sg17
g13
sg18
g13
sg19
g1636
sg21
g22
sbag7
(g8
g9
NtRp2061
(dp2062
g12
g29
sg14
S'TeXGyrePagella'
p2063
sg16
I400
sg17
g13
sg18
g13
sg19
g1637
sg21
g22
sbag7
(g8
g9
NtRp2064
(dp2065
g12
g29
sg14
S'TeXGyreAdventor'
p2066
sg16
I700
sg17
g13
sg18
g13
sg19
g1638
sg21
g22
sbag7
(g8
g9
NtRp2067
(dp2068
g12
g13
sg14
S'TeXGyreHerosCondensed'
p2069
sg16
I400
sg17
g13
sg18
g13
sg19
g1639
sg21
g22
sbag7
(g8
g9
NtRp2070
(dp2071
g12
g29
sg14
S'LMMonoLtCond10'
p2072
sg16
I200
sg17
g13
sg18
g13
sg19
g1640
sg21
g22
sbag7
(g8
g9
NtRp2073
(dp2074
g12
g13
sg14
S'Century Schoolbook L'
p2075
sg16
I700
sg17
g13
sg18
g13
sg19
g1641
sg21
g22
sbag7
(g8
g9
NtRp2076
(dp2077
g12
g13
sg14
S'TeXGyrePagella'
p2078
sg16
I700
sg17
g13
sg18
g13
sg19
g1642
sg21
g22
sbag7
(g8
g9
NtRp2079
(dp2080
g12
g13
sg14
S'Nimbus Sans L'
p2081
sg16
I700
sg17
g13
sg18
g13
sg19
g1643
sg21
g22
sbag7
(g8
g9
NtRp2082
(dp2083
g12
g13
sg14
S'Nimbus Mono L'
p2084
sg16
I400
sg17
g13
sg18
g13
sg19
g1644
sg21
g22
sbag7
(g8
g9
NtRp2085
(dp2086
g12
g29
sg14
S'URW Gothic L'
p2087
sg16
I400
sg17
g13
sg18
g13
sg19
g1645
sg21
g22
sbag7
(g8
g9
NtRp2088
(dp2089
g12
g29
sg14
S'LMMonoPropLt10'
p2090
sg16
I700
sg17
g13
sg18
g13
sg19
g1646
sg21
g22
sbag7
(g8
g9
NtRp2091
(dp2092
g12
g29
sg14
S'Century Schoolbook L'
p2093
sg16
I400
sg17
g13
sg18
g13
sg19
g1647
sg21
g22
sbag7
(g8
g9
NtRp2094
(dp2095
g12
g29
sg14
S'TeXGyreCursor'
p2096
sg16
I400
sg17
g13
sg18
g13
sg19
g1648
sg21
g22
sbag7
(g8
g9
NtRp2097
(dp2098
g12
g29
sg14
S'Nimbus Sans L'
p2099
sg16
I700
sg17
g13
sg18
g13
sg19
g1649
sg21
g22
sbag7
(g8
g9
NtRp2100
(dp2101
g12
g29
sg14
S'Courier 10 Pitch'
p2102
sg16
I400
sg17
g13
sg18
g13
sg19
g1650
sg21
g22
sbag7
(g8
g9
NtRp2103
(dp2104
g12
g13
sg14
S'LMSansQuot8'
p2105
sg16
I400
sg17
g13
sg18
g13
sg19
g1651
sg21
g22
sbag7
(g8
g9
NtRp2106
(dp2107
g12
g29
sg14
S'LMSans10'
p2108
sg16
I700
sg17
g13
sg18
g13
sg19
g1652
sg21
g22
sbag7
(g8
g9
NtRp2109
(dp2110
g12
g13
sg14
S'TeXGyreAdventor'
p2111
sg16
I400
sg17
g13
sg18
g13
sg19
g1653
sg21
g22
sbag7
(g8
g9
NtRp2112
(dp2113
g12
g13
sg14
S'Nimbus Sans L'
p2114
sg16
I400
sg17
g13
sg18
g13
sg19
g1654
sg21
g22
sbag7
(g8
g9
NtRp2115
(dp2116
g12
g29
sg14
S'Nimbus Sans L'
p2117
sg16
I400
sg17
g13
sg18
g13
sg19
g1655
sg21
g22
sbag7
(g8
g9
NtRp2118
(dp2119
g12
g29
sg14
S'LMMonoLt10'
p2120
sg16
I700
sg17
g13
sg18
g13
sg19
g1656
sg21
g22
sbag7
(g8
g9
NtRp2121
(dp2122
g12
g29
sg14
S'Courier 10 Pitch'
p2123
sg16
I700
sg17
g13
sg18
g13
sg19
g1657
sg21
g22
sbag7
(g8
g9
NtRp2124
(dp2125
g12
g29
sg14
S'LMRomanDemi10'
p2126
sg16
I600
sg17
g13
sg18
g13
sg19
g1658
sg21
g22
sbag7
(g8
g9
NtRp2127
(dp2128
g12
g29
sg14
S'URW Palladio L'
p2129
sg16
I400
sg17
g13
sg18
g13
sg19
g1659
sg21
g22
sbag7
(g8
g9
NtRp2130
(dp2131
g12
g29
sg14
S'TeXGyrePagella'
p2132
sg16
I700
sg17
g13
sg18
g13
sg19
g1660
sg21
g22
sbag7
(g8
g9
NtRp2133
(dp2134
g12
g13
sg14
S'LMSansDemiCond10'
p2135
sg16
I600
sg17
g13
sg18
g13
sg19
g1661
sg21
g22
sbag7
(g8
g9
NtRp2136
(dp2137
g12
g29
sg14
S'LMMonoSlant10'
p2138
sg16
I400
sg17
g13
sg18
g13
sg19
g1662
sg21
g22
sbag7
(g8
g9
NtRp2139
(dp2140
g12
g29
sg14
S'Nimbus Mono L'
p2141
sg16
I400
sg17
g13
sg18
g13
sg19
g1663
sg21
g22
sbag7
(g8
g9
NtRp2142
(dp2143
g12
g29
sg14
S'TeXGyreHerosCondensed'
p2144
sg16
I400
sg17
g13
sg18
g13
sg19
g1664
sg21
g22
sbag7
(g8
g9
NtRp2145
(dp2146
g12
g29
sg14
S'URW Gothic L'
p2147
sg16
I600
sg17
g13
sg18
g13
sg19
g1665
sg21
g22
sbag7
(g8
g9
NtRp2148
(dp2149
g12
g29
sg14
S'TeXGyreBonum'
p2150
sg16
I400
sg17
g13
sg18
g13
sg19
g1666
sg21
g22
sbag7
(g8
g9
NtRp2151
(dp2152
g12
g13
sg14
S'Bitstream Charter'
p2153
sg16
I700
sg17
g13
sg18
g13
sg19
g1667
sg21
g22
sbag7
(g8
g9
NtRp2154
(dp2155
g12
g13
sg14
S'LMRomanUnsl10'
p2156
sg16
I400
sg17
g13
sg18
g13
sg19
g1668
sg21
g22
sbasb.