(imatplotlib.font_manager
FontManager
p1
(dp2
S'ttffiles'
p3
(lp4
S'/usr/share/matplotlib/mpl-data/fonts/ttf/cmb10.ttf'
p5
aS'/usr/share/matplotlib/mpl-data/fonts/ttf/cmex10.ttf'
p6
aS'/usr/share/matplotlib/mpl-data/fonts/ttf/STIXNonUniIta.ttf'
p7
aS'/usr/share/matplotlib/mpl-data/fonts/ttf/STIXNonUni.ttf'
p8
aS'/usr/share/matplotlib/mpl-data/fonts/ttf/STIXSiz5Sym.ttf'
p9
aS'/usr/share/matplotlib/mpl-data/fonts/ttf/cmtt10.ttf'
p10
aS'/usr/share/matplotlib/mpl-data/fonts/ttf/STIXGeneral.ttf'
p11
aS'/usr/share/matplotlib/mpl-data/fonts/ttf/STIXNonUniBolIta.ttf'
p12
aS'/usr/share/matplotlib/mpl-data/fonts/ttf/STIXSiz3SymBol.ttf'
p13
aS'/usr/share/matplotlib/mpl-data/fonts/ttf/STIXSiz3Sym.ttf'
p14
aS'/usr/share/matplotlib/mpl-data/fonts/ttf/STIXSiz2Sym.ttf'
p15
aS'/usr/share/matplotlib/mpl-data/fonts/ttf/STIXGeneralBol.ttf'
p16
aS'/usr/share/matplotlib/mpl-data/fonts/ttf/STIXSiz4SymBol.ttf'
p17
aS'/usr/share/matplotlib/mpl-data/fonts/ttf/STIXSiz2SymBol.ttf'
p18
aS'/usr/share/matplotlib/mpl-data/fonts/ttf/cmsy10.ttf'
p19
aS'/usr/share/matplotlib/mpl-data/fonts/ttf/cmss10.ttf'
p20
aS'/usr/share/matplotlib/mpl-data/fonts/ttf/STIXSiz1SymBol.ttf'
p21
aS'/usr/share/matplotlib/mpl-data/fonts/ttf/STIXGeneralItalic.ttf'
p22
aS'/usr/share/matplotlib/mpl-data/fonts/ttf/cmr10.ttf'
p23
aS'/usr/share/matplotlib/mpl-data/fonts/ttf/STIXSiz4Sym.ttf'
p24
aS'/usr/share/matplotlib/mpl-data/fonts/ttf/STIXSiz1Sym.ttf'
p25
aS'/usr/share/matplotlib/mpl-data/fonts/ttf/cmmi10.ttf'
p26
aS'/usr/share/matplotlib/mpl-data/fonts/ttf/STIXNonUniBol.ttf'
p27
aS'/usr/share/matplotlib/mpl-data/fonts/ttf/STIXGeneralBolIta.ttf'
p28
aS'/usr/share/fonts/truetype/ttf-dejavu/DejaVuSerifCondensed-Bold.ttf'
p29
aS'/usr/share/fonts/truetype/ttf-dejavu/DejaVuSans-ExtraLight.ttf'
p30
aS'/usr/share/fonts/truetype/ttf-dejavu/DejaVuSerifCondensed-BoldItalic.ttf'
p31
aS'/usr/share/fonts/truetype/ttf-dejavu/DejaVuSerif-Italic.ttf'
p32
aS'/usr/share/fonts/truetype/ttf-dejavu/DejaVuSerifCondensed-Italic.ttf'
p33
aS'/usr/share/fonts/truetype/ttf-dejavu/DejaVuSerif-Bold.ttf'
p34
aS'/usr/share/fonts/truetype/ttf-dejavu/DejaVuSerif-BoldItalic.ttf'
p35
aS'/usr/share/fonts/truetype/ttf-dejavu/DejaVuSerifCondensed.ttf'
p36
aS'/usr/share/fonts/truetype/ttf-dejavu/DejaVuSans.ttf'
p37
aS'/usr/share/fonts/truetype/ttf-dejavu/DejaVuSans-BoldOblique.ttf'
p38
aS'/usr/share/fonts/truetype/ttf-dejavu/DejaVuSansMono.ttf'
p39
aS'/usr/share/fonts/truetype/ttf-dejavu/DejaVuSansMono-Oblique.ttf'
p40
aS'/usr/share/fonts/truetype/ttf-dejavu/DejaVuSansMono-BoldOblique.ttf'
p41
aS'/usr/share/fonts/truetype/ttf-dejavu/DejaVuSansMono-Bold.ttf'
p42
aS'/usr/share/fonts/truetype/ttf-dejavu/DejaVuSansCondensed-BoldOblique.ttf'
p43
aS'/usr/share/fonts/truetype/ttf-dejavu/DejaVuSans-Oblique.ttf'
p44
aS'/usr/share/fonts/truetype/ttf-dejavu/DejaVuSansCondensed-Bold.ttf'
p45
aS'/usr/share/fonts/truetype/ttf-dejavu/DejaVuSans-Bold.ttf'
p46
aS'/usr/share/fonts/truetype/ttf-dejavu/DejaVuSansCondensed-Oblique.ttf'
p47
aS'/usr/share/fonts/truetype/ttf-dejavu/DejaVuSansCondensed.ttf'
p48
aS'/usr/share/fonts/truetype/ttf-dejavu/DejaVuSerif.ttf'
p49
asS'_FontManager__default_weight'
p50
S'normal'
p51
sS'default_size'
p52
NsS'defaultFont'
p53
g5
sS'afmdict'
p54
(dp55
S'Computer Modern'
p56
(dp57
S'italic'
p58
(dp59
g51
(dp60
I500
(dp61
g51
(dp62
S'scalable'
p63
S'/usr/share/matplotlib/mpl-data/fonts/afm/cmmi10.afm'
p64
sssssg51
(dp65
g51
(dp66
I500
(dp67
g51
(dp68
g63
S'/usr/share/matplotlib/mpl-data/fonts/afm/cmr10.afm'
p69
ssssssS'ITC Zapf Dingbats'
p70
(dp71
g51
(dp72
g51
(dp73
I500
(dp74
g51
(dp75
g63
S'/usr/share/matplotlib/mpl-data/fonts/afm/pzdr.afm'
p76
ssssssS'Courier'
p77
(dp78
g58
(dp79
g51
(dp80
I500
(dp81
g51
(dp82
g63
S'/usr/share/matplotlib/mpl-data/fonts/afm/pcrro8a.afm'
p83
sssI700
(dp84
g51
(dp85
g63
S'/usr/share/matplotlib/mpl-data/fonts/afm/pcrbo8a.afm'
p86
sssssg51
(dp87
g51
(dp88
I700
(dp89
g51
(dp90
g63
S'/usr/share/matplotlib/mpl-data/fonts/afm/pcrb8a.afm'
p91
sssI500
(dp92
g51
(dp93
g63
S'/usr/share/matplotlib/mpl-data/fonts/afm/pcrr8a.afm'
p94
ssssssS'LMTypewriter10'
p95
(dp96
g58
(dp97
g51
(dp98
I400
(dp99
g51
(dp100
g63
S'/usr/share/fonts/X11/Type1/lmtti10.afm'
p101
sssI200
(dp102
g51
(dp103
g63
S'/usr/share/fonts/X11/Type1/lmtlco10.afm'
p104
sssI700
(dp105
g51
(dp106
g63
S'/usr/share/fonts/X11/Type1/lmtko10.afm'
p107
sssssg51
(dp108
g51
(dp109
I400
(dp110
g51
(dp111
g63
S'/usr/share/fonts/X11/Type1/lmtcsc10.afm'
p112
sssI200
(dp113
g51
(dp114
g63
S'/usr/share/fonts/X11/Type1/lmtl10.afm'
p115
sssI700
(dp116
g51
(dp117
g63
S'/usr/share/fonts/X11/Type1/lmtk10.afm'
p118
ssssssS'Symbol'
p119
(dp120
g51
(dp121
g51
(dp122
I500
(dp123
g51
(dp124
g63
S'/usr/share/matplotlib/mpl-data/fonts/afm/psyr.afm'
p125
ssssssS'New Century Schoolbook'
p126
(dp127
g58
(dp128
g51
(dp129
I700
(dp130
g51
(dp131
g63
S'/usr/share/matplotlib/mpl-data/fonts/afm/pncbi8a.afm'
p132
sssI500
(dp133
g51
(dp134
g63
S'/usr/share/matplotlib/mpl-data/fonts/afm/pncri8a.afm'
p135
sssssg51
(dp136
g51
(dp137
I500
(dp138
g51
(dp139
g63
S'/usr/share/matplotlib/mpl-data/fonts/afm/pncr8a.afm'
p140
sssI700
(dp141
g51
(dp142
g63
S'/usr/share/matplotlib/mpl-data/fonts/afm/pncb8a.afm'
p143
ssssssS'Helvetica'
p144
(dp145
g58
(dp146
g51
(dp147
I200
(dp148
g51
(dp149
g63
S'/usr/share/matplotlib/mpl-data/fonts/afm/phvlo8a.afm'
p150
sssI700
(dp151
g51
(dp152
g63
S'/usr/share/matplotlib/mpl-data/fonts/afm/phvbo8a.afm'
p153
sssI500
(dp154
g51
(dp155
g63
S'/usr/share/matplotlib/mpl-data/fonts/afm/phvro8a.afm'
p156
sssssg51
(dp157
g51
(dp158
I200
(dp159
g51
(dp160
g63
S'/usr/share/matplotlib/mpl-data/fonts/afm/phvl8a.afm'
p161
sssI700
(dp162
g51
(dp163
g63
S'/usr/share/matplotlib/mpl-data/fonts/afm/phvb8an.afm'
p164
sssI500
(dp165
g51
(dp166
g63
S'/usr/share/matplotlib/mpl-data/fonts/afm/phvr8a.afm'
p167
ssssssS'LMRoman10'
p168
(dp169
g58
(dp170
g51
(dp171
I400
(dp172
g51
(dp173
g63
S'/usr/share/fonts/X11/Type1/lmri10.afm'
p174
sssI600
(dp175
g51
(dp176
g63
S'/usr/share/fonts/X11/Type1/lmbo10.afm'
p177
sssI700
(dp178
g51
(dp179
g63
S'/usr/share/fonts/X11/Type1/lmbxi10.afm'
p180
sssssg51
(dp181
g51
(dp182
I600
(dp183
g51
(dp184
g63
S'/usr/share/fonts/X11/Type1/lmb10.afm'
p185
sssI400
(dp186
g51
(dp187
g63
S'/usr/share/fonts/X11/Type1/lmu10.afm'
p188
sssI700
(dp189
g51
(dp190
g63
S'/usr/share/fonts/X11/Type1/lmbx10.afm'
p191
ssssssS'Times'
p192
(dp193
g58
(dp194
g51
(dp195
I700
(dp196
g51
(dp197
g63
S'/usr/share/matplotlib/mpl-data/fonts/afm/ptmbi8a.afm'
p198
sssI500
(dp199
g51
(dp200
g63
S'/usr/share/matplotlib/mpl-data/fonts/afm/ptmri8a.afm'
p201
sssssg51
(dp202
g51
(dp203
I700
(dp204
g51
(dp205
g63
S'/usr/share/matplotlib/mpl-data/fonts/afm/ptmb8a.afm'
p206
sssI500
(dp207
g51
(dp208
g63
S'/usr/share/matplotlib/mpl-data/fonts/afm/ptmr8a.afm'
p209
ssssssS'Utopia'
p210
(dp211
g58
(dp212
g51
(dp213
I400
(dp214
g51
(dp215
g63
S'/usr/share/matplotlib/mpl-data/fonts/afm/putri8a.afm'
p216
sssI700
(dp217
g51
(dp218
g63
S'/usr/share/matplotlib/mpl-data/fonts/afm/putbi8a.afm'
p219
sssssg51
(dp220
g51
(dp221
I400
(dp222
g51
(dp223
g63
S'/usr/share/matplotlib/mpl-data/fonts/afm/putr8a.afm'
p224
sssI700
(dp225
g51
(dp226
g63
S'/usr/share/matplotlib/mpl-data/fonts/afm/putb8a.afm'
p227
ssssssS'ITC Zapf Chancery'
p228
(dp229
g58
(dp230
g51
(dp231
I500
(dp232
g51
(dp233
g63
S'/usr/share/matplotlib/mpl-data/fonts/afm/pzcmi8a.afm'
p234
ssssssS'ITC Bookman'
p235
(dp236
g58
(dp237
g51
(dp238
I200
(dp239
g51
(dp240
g63
S'/usr/share/matplotlib/mpl-data/fonts/afm/pbkli8a.afm'
p241
sssI600
(dp242
g51
(dp243
g63
S'/usr/share/matplotlib/mpl-data/fonts/afm/pbkdi8a.afm'
p244
sssssg51
(dp245
g51
(dp246
I600
(dp247
g51
(dp248
g63
S'/usr/share/matplotlib/mpl-data/fonts/afm/pbkd8a.afm'
p249
sssI200
(dp250
g51
(dp251
g63
S'/usr/share/matplotlib/mpl-data/fonts/afm/pbkl8a.afm'
p252
ssssssS'LMSansQuotation8'
p253
(dp254
g58
(dp255
g51
(dp256
I400
(dp257
g51
(dp258
g63
S'/usr/share/fonts/X11/Type1/lmssqo8.afm'
p259
sssI700
(dp260
g51
(dp261
g63
S'/usr/share/fonts/X11/Type1/lmssqbo8.afm'
p262
sssssg51
(dp263
g51
(dp264
I400
(dp265
g51
(dp266
g63
S'/usr/share/fonts/X11/Type1/lmssq8.afm'
p267
sssI700
(dp268
g51
(dp269
g63
S'/usr/share/fonts/X11/Type1/lmssqbx8.afm'
p270
ssssssS'LMSans10'
p271
(dp272
g58
(dp273
g51
(dp274
I600
(dp275
g51
(dp276
g63
S'/usr/share/fonts/X11/Type1/lmssdo10.afm'
p277
sssI400
(dp278
g51
(dp279
g63
S'/usr/share/fonts/X11/Type1/lmsso10.afm'
p280
sssI700
(dp281
g51
(dp282
g63
S'/usr/share/fonts/X11/Type1/lmssbo10.afm'
p283
sssssg51
(dp284
g51
(dp285
I400
(dp286
g51
(dp287
g63
S'/usr/share/fonts/X11/Type1/lmss10.afm'
p288
sssI600
(dp289
g51
(dp290
g63
S'/usr/share/fonts/X11/Type1/lmssdc10.afm'
p291
sssI700
(dp292
g51
(dp293
g63
S'/usr/share/fonts/X11/Type1/lmssbx10.afm'
p294
ssssssS'Palatino'
p295
(dp296
g58
(dp297
g51
(dp298
I500
(dp299
g51
(dp300
g63
S'/usr/share/matplotlib/mpl-data/fonts/afm/pplri8a.afm'
p301
sssI700
(dp302
g51
(dp303
g63
S'/usr/share/matplotlib/mpl-data/fonts/afm/pplbi8a.afm'
p304
sssssg51
(dp305
g51
(dp306
I500
(dp307
g51
(dp308
g63
S'/usr/share/matplotlib/mpl-data/fonts/afm/pplr8a.afm'
p309
sssI700
(dp310
g51
(dp311
g63
S'/usr/share/matplotlib/mpl-data/fonts/afm/pplb8a.afm'
p312
ssssssS'LMTypewriterVarWd10'
p313
(dp314
g58
(dp315
g51
(dp316
I400
(dp317
g51
(dp318
g63
S'/usr/share/fonts/X11/Type1/lmvtto10.afm'
p319
sssI200
(dp320
g51
(dp321
g63
S'/usr/share/fonts/X11/Type1/lmvtlo10.afm'
p322
sssI700
(dp323
g51
(dp324
g63
S'/usr/share/fonts/X11/Type1/lmvtko10.afm'
p325
sssssg51
(dp326
g51
(dp327
I400
(dp328
g51
(dp329
g63
S'/usr/share/fonts/X11/Type1/lmvtt10.afm'
p330
sssI200
(dp331
g51
(dp332
g63
S'/usr/share/fonts/X11/Type1/lmvtl10.afm'
p333
sssI700
(dp334
g51
(dp335
g63
S'/usr/share/fonts/X11/Type1/lmvtk10.afm'
p336
ssssssS'ITC Avant Garde Gothic'
p337
(dp338
g58
(dp339
g51
(dp340
I600
(dp341
g51
(dp342
g63
S'/usr/share/matplotlib/mpl-data/fonts/afm/pagdo8a.afm'
p343
sssI400
(dp344
g51
(dp345
g63
S'/usr/share/matplotlib/mpl-data/fonts/afm/pagko8a.afm'
p346
sssssg51
(dp347
g51
(dp348
I400
(dp349
g51
(dp350
g63
S'/usr/share/matplotlib/mpl-data/fonts/afm/pagk8a.afm'
p351
sssI600
(dp352
g51
(dp353
g63
S'/usr/share/matplotlib/mpl-data/fonts/afm/pagd8a.afm'
p354
sssssssS'afmfiles'
p355
(lp356
g161
ag234
ag312
ag219
aS'/usr/share/matplotlib/mpl-data/fonts/afm/phvro8an.afm'
p357
ag249
ag86
ag224
ag343
ag227
ag135
ag143
ag132
aS'/usr/share/matplotlib/mpl-data/fonts/afm/cmex10.afm'
p358
aS'/usr/share/matplotlib/mpl-data/fonts/afm/cmtt10.afm'
p359
aS'/usr/share/matplotlib/mpl-data/fonts/afm/phvr8an.afm'
p360
ag156
ag209
ag304
aS'/usr/share/matplotlib/mpl-data/fonts/afm/cmsy10.afm'
p361
ag351
ag94
ag64
ag346
aS'/usr/share/matplotlib/mpl-data/fonts/afm/phvbo8an.afm'
p362
ag153
ag69
ag206
ag150
aS'/usr/share/matplotlib/mpl-data/fonts/afm/phvb8a.afm'
p363
ag76
ag201
ag309
ag252
ag83
ag125
ag301
ag198
ag241
ag91
ag354
ag140
ag244
ag216
ag167
ag164
aS'/usr/share/fonts/X11/Type1/lmtt10.afm'
p364
ag191
ag277
ag270
ag259
ag185
aS'/usr/share/fonts/X11/Type1/lmbxo10.afm'
p365
ag325
ag112
aS'/usr/share/fonts/X11/Type1/lmcsco10.afm'
p366
aS'/usr/share/fonts/X11/Type1/lmtlc10.afm'
p367
ag319
aS'/usr/share/fonts/X11/Type1/lmdunh10.afm'
p368
ag288
ag330
aS'/usr/share/fonts/X11/Type1/lmro10.afm'
p369
aS'/usr/share/fonts/X11/Type1/lmduno10.afm'
p370
ag180
ag267
ag333
ag283
aS'/usr/share/fonts/X11/Type1/lmcsc10.afm'
p371
ag107
ag280
ag177
ag174
ag262
aS'/usr/share/fonts/X11/Type1/lmr10.afm'
p372
ag118
ag291
ag294
ag336
aS'/usr/share/fonts/X11/Type1/lmtto10.afm'
p373
ag322
aS'/usr/share/fonts/X11/Type1/lmtlo10.afm'
p374
aS'/usr/share/fonts/X11/Type1/lmtcso10.afm'
p375
ag115
ag101
ag104
ag188
asS'ttfdict'
p376
(dp377
S'cmsy10'
p378
(dp379
g51
(dp380
g51
(dp381
I400
(dp382
g51
(dp383
g63
g19
ssssssS'DejaVu Sans Mono'
p384
(dp385
S'oblique'
p386
(dp387
g51
(dp388
I400
(dp389
g51
(dp390
g63
g40
sssI700
(dp391
g51
(dp392
g63
g41
sssssg51
(dp393
g51
(dp394
I400
(dp395
g51
(dp396
g63
g39
sssI700
(dp397
g51
(dp398
g63
g42
ssssssS'cmb10'
p399
(dp400
g51
(dp401
g51
(dp402
I400
(dp403
g51
(dp404
g63
g5
ssssssS'cmss10'
p405
(dp406
g51
(dp407
g51
(dp408
I400
(dp409
g51
(dp410
g63
g20
ssssssS'STIXNonUnicode'
p411
(dp412
g58
(dp413
g51
(dp414
I400
(dp415
g51
(dp416
g63
g7
sssI700
(dp417
g51
(dp418
g63
g12
sssssg51
(dp419
g51
(dp420
I400
(dp421
g51
(dp422
g63
g8
sssI700
(dp423
g51
(dp424
g63
g27
ssssssS'STIXSize5'
p425
(dp426
g51
(dp427
g51
(dp428
I400
(dp429
g51
(dp430
g63
g9
ssssssS'STIXSize2'
p431
(dp432
g51
(dp433
g51
(dp434
I400
(dp435
g51
(dp436
g63
g15
sssI700
(dp437
g51
(dp438
g63
g18
ssssssS'STIXSize3'
p439
(dp440
g51
(dp441
g51
(dp442
I400
(dp443
g51
(dp444
g63
g14
sssI700
(dp445
g51
(dp446
g63
g13
ssssssS'STIXSize1'
p447
(dp448
g51
(dp449
g51
(dp450
I400
(dp451
g51
(dp452
g63
g25
sssI700
(dp453
g51
(dp454
g63
g21
ssssssS'STIXGeneral'
p455
(dp456
g58
(dp457
g51
(dp458
I400
(dp459
g51
(dp460
g63
g22
sssI700
(dp461
g51
(dp462
g63
g28
sssssg51
(dp463
g51
(dp464
I400
(dp465
g51
(dp466
g63
g11
sssI700
(dp467
g51
(dp468
g63
g16
ssssssS'cmr10'
p469
(dp470
g51
(dp471
g51
(dp472
I400
(dp473
g51
(dp474
g63
g23
ssssssS'DejaVu Sans'
p475
(dp476
g386
(dp477
g51
(dp478
I400
(dp479
S'condensed'
p480
(dp481
g63
g47
ssg51
(dp482
g63
g44
sssI700
(dp483
g480
(dp484
g63
g43
ssg51
(dp485
g63
g38
sssssg51
(dp486
g51
(dp487
I200
(dp488
g51
(dp489
g63
g30
sssI400
(dp490
g480
(dp491
g63
g48
ssg51
(dp492
g63
g37
sssI700
(dp493
g480
(dp494
g63
g45
ssg51
(dp495
g63
g46
ssssssS'DejaVu Serif'
p496
(dp497
g58
(dp498
g51
(dp499
I400
(dp500
g480
(dp501
g63
g33
ssg51
(dp502
g63
g32
sssI700
(dp503
g480
(dp504
g63
g31
ssg51
(dp505
g63
g35
sssssg51
(dp506
g51
(dp507
I400
(dp508
g480
(dp509
g63
g36
ssg51
(dp510
g63
g49
sssI700
(dp511
g480
(dp512
g63
g29
ssg51
(dp513
g63
g34
ssssssS'cmtt10'
p514
(dp515
g51
(dp516
g51
(dp517
I400
(dp518
g51
(dp519
g63
g10
ssssssS'cmmi10'
p520
(dp521
g51
(dp522
g51
(dp523
I400
(dp524
g51
(dp525
g63
g26
ssssssS'STIXSize4'
p526
(dp527
g51
(dp528
g51
(dp529
I400
(dp530
g51
(dp531
g63
g24
sssI700
(dp532
g51
(dp533
g63
g17
ssssssS'cmex10'
p534
(dp535
g51
(dp536
g51
(dp537
I400
(dp538
g51
(dp539
g63
g6
sssssssb.